(dp1
S'#olympics medals medals it gratifying ribound indian sports persons dopfree pitwitter.confkduu2ez6'
p2
S'sports'
p3
sS'happy returns day @sureshpprabhu sir wish u good health make indian railways good healt!'
p4
S'railways'
p5
sS'advanced artillery gun wii .. ht/ gogy2dkzi #advancedartillerygun #drdo #indiandefence pitwitter.coedmsr323mf'
p6
S'defence'
p7
sS'da da ding nike ad women athletes delight guess kind honor indian sports women htt/ youtb1uvpz8fd4b8'
p8
g3
sS'tag appropriate grm/drm indian railways asking query sorted faster @sureshpprabhu #indianrailmedia'
p9
g5
sS'indias solapowered train #solarpower #solarpanels #indianrailways #incredibleindia #solarpoweredtrains ht/ olns29300hzc7'
p10
g5
sS'thanks @sureshpprabhu #indianrailways want 1 speed 2 speed 3 speed'
p11
g5
sS'pakistan briefs p5 envoys kashmir situation .. ht/ idrorpakistabrief p5-envoys-kashmir-situation'
p12
g7
sS'visual sonic bliss @nike indian girl power amazing #justdoit htt/ youtb1uvpz8fd4b8 #girlpower #indian #sports'
p13
g3
sS'@sureshpprabhu happy birthday si. n thanks making indian railways world clas'
p14
g5
sS'#india lease #akula class nuclear #submarine #russian navy ht/ bil29h15zw'
p15
g7
sS'indian railways need business management principles budget speeches quartz #businessmanagement ht/ dlbdtfkj'
p16
g5
sS'#talgo zooms 180 khr completes mathurpalwal journey 38 mins that indian #railways speed recor'
p17
g5
sS'great start #indianrailways pitwitter.corrm8okei1a'
p18
g5
sS'ready save indian extreme critical condition ...i respect u indian defence ... #loveualways'
p19
g7
sS'@free_rider trial coaches commercial use indian railways prob ir platform heights concern'
p20
g5
sS'latest apoorva pratap singh daily ht/ papelapoorvapratap edition_if19fbf6496d-11e6-bfc9-0cc47a0d1609 #indianrailways #weareone'
p21
g5
sS'@pmoindia @narendramodi meets eye suggest office investigate ht/www thehindubusinesslincotodaypaper/t newgovt-accepts-indian-railways-finance-commissioners-voluntary-retirement/article884582ece'
p22
g5
sS'#indian sports teen sex videos lesbian girls sex videos free geting held sex just girls ht/ 5alouz.ga'
p23
g3
sS'join indian railways #gogreen initiative short film abt usage bitoilets passe.. htt/ youtbzmnttyss8o8 @youtube'
p24
g5
sS'train speed touched 180 kmph wow ht/www financialexprescoindinews/tal gtrain-achieves-target-speed-180-kmph-indian-railways-tria315207/v4bcwevyiba.twitter @financialxpress'
p25
g5
sS'@sureshpprabhu sir wish happy birthday really proud positive change bringing indian railways'
p26
g5
sS'lol wc 2011 win going espn india 1 moment indian sports histor'
p27
g3
sS'180 kmph talgo completes mathurpalwal journey 38 minutes indian railways conducted sec.. ht/ bil29rbgpr'
p28
g5
sS'thank #indianrailways @halfticketmovie ht/ youtbuuuhe5v45n8 releasing july 22 pitwitter.cof7unc1snmb'
p29
g5
sS'great country capable #not time'
p30
g7
sS'@wrongdoc sending blood thirsty stone pelting jehadi mob instead indian defence forces @kenroth'
p31
g7
sS'@mirzasania congrats release book needs lot confidence courage write autobiography indian sports legend'
p32
g3
sS'indian railways says changes ticketing rules july 1 ht/ checktrainpnrstatucoblog/indiara ilwaysays-no-changes-ticketing-rules-july-1 @irctcpnrenquiry'
p33
g5
sS'#talgo @railminindia @sureshpprabhu @gmncr1 congrats team indian railways successful run talgo 180 kmph'
p34
g5
sS'coming soon big brother watch ngos civil society groups worried @manoharparrikar .. ht/ idrorc/'
p35
g7
sS'indian railways carries passengers daily entire population large area country like australi'
p36
g5
sS'that boys relate congrats indian railways talgo train pitwitter.cokydjo7cfx5'
p37
g5
sS'@sureshpprabhu nice ac waiting rooms indian railways .. @narendramodi gave india best min pitwitter.cooeileldzo9'
p38
g5
sS'#video #indianrailways #alco kjm wdg3a power #hubbali sc #hyderabad exp #trains #railways htt/www youtubcowatcgijmp 4oxiw pitwitter.cozptc4dqdcb'
p39
g5
sS'@sureshpprabhu happy birthday sir ray hope indian railways adding incremental improvement indian railways'
p40
g5
sS'#indianrailways successfully tests spain #talgo #train running 180 kmph step speedy transport pitwitter.cohmeuuaqdhy'
p41
g5
sS'10 ways suresh prabhled #indianrailways preparing #monsoon season ht/www financialexprescoindinews/10- waysuresh-prabhu-led-indian-railways-preparing-monsoon-seaso315538/v4c9zn_8vmu.twitter @sureshpprabhu @manojsinhabjp'
p42
g5
sS'decoding burhan wani kashmir unrest indian oppression blame ht/ disut/2ae6un3'
p43
g7
sS'india havdelhmumbai bullet train palwamathura minutes @sureshpprabhu sir #indianrailways #talgo htt/ twittecosanjay_dixit/s tatu753393017227182080'
p44
g5
sS'respect heartiest salute indian defence . #indianarmybemisaal'
p45
g7
sS'watch china eyeing andamans @manoharparrikar @narendramodi ht/ idrorwatcchina-ma eyeing-andamans'
p46
g7
sS'delhi mumbai 12 hrs #talgo pass 3 tests #indianrailways ht/ fexisba241812 pitwitter.covft1etn4fu'
p47
g5
sS'indian railways gets model rake luxury make india coaches krantikari post ht/ bil29omcur'
p48
g5
sS'@sureshpprabhu sir happy returns day leadership indian railways scaling new height'
p49
g5
sS'3 ht/www newsloosco2015/08/19/%e0 %a4%b9%e0%a4%be%e0%a4%88%e0%a4%9f%e0%a5%87%e0%a4%9%e0%a4%b9%e0%a5%8b-%e0%a4%97%e0%a4%af%e0%a4%be-%e0%a4%ad%e0%a4%be%e0%a4%b0%e0%a4%a4%e0%a5%80%e0%a4%af-%e0%a4%b0%e0%a5%87%e0%a4%b2-%e0%a4%utm_sourcreviveoldpost&utm_medium=social&utm_campaign=reviveoldpost #ac3tiercoach #indianrailways #sureshprabhu #akhileshdestroyedup'
p50
g5
sS'@inandoutkabaddi @suhailchandhok thats engrossing listen hope bring data led thinking indian sports'
p51
g3
sS'indian railways air india facilitate onward journ3'
p52
g5
sS'bjp run india revenue growth indian railways comes naught pitwitter.colboohxd6cj'
p53
g5
sS'check new accidenprevention disablefriendly facilities indian railways ht/www thebetterindico61395/trnetr boc-railways'
p54
g5
sS'travelling shatabdi time #indianrailways'
p55
g5
sS'indian railways crosses 180 kh speed mathurpalwal route congratulations @sureshpprabhu & hope commercial run near futur'
p56
g5
sS'indian railways tienems 6 millones empleadosconvirtindose en una las empresas ms trabajadores del mundo #antroiies'
p57
g5
sS'solution j & k problem lies new delhi indian defence review ht/www indiandefencerevieconews/solution tj-k-problem-lies-in-new-delhi ht/ fm5s1lezb6i'
p58
g7
sS'j&k theatre war indian defence review ht/www indiandefencerevieconews/jtheatr of-the-next-wav4c7hcrckei.twitter'
p59
g7
sS'cii defence & aerospace industry directory details 400 indian defence companies know details ht/www ciipublicationdet aiaspenpox2sz6ezqxjeanbzccbya74svwxkjtlzrjczw+e7tfwmvkj4i7fuki9gwb/qiima2ya2h6bonied5pguqftg0wanumyimkfywsxuehglofi51ioe/jefzah643uqzpmglvcrrv5vvlcrikl+tpyteps3xkweyt/lhhisspfx645lv5bqy/4bs1orb6x'
p60
g7
sS'@timesnow finding new new ways making money popularity talents indian sports athelectic'
p61
g3
sS'hyderabad isis springboard india ht/ disut/2ae6xjc'
p62
g7
sS'dear @sureshpprabhu sir happy birthday sir god bless shosers happiness n success indian railways rgds'
p63
g5
sS'does indian railways allow eunuchs beggars roam freely beg trains htt/www quorcowhdoes-india railways-allow-eunuchs-and-beggars-to-roam-freely-and-beg-in-trainanswer/bholanath-singshar6551b000'
p64
g5
sS'chugging ahead indian railways powers ahead track #energyefficiency ht/ bilrailwaysundp pitwitter.co7yeyzdwwc7'
p65
g5
sS'@sureshpprabhu happy returns sir best thing happened indian railways long live india needs yo'
p66
g5
sS'latest panchadik ht/ papelmedilberedit ion_i45624284969-11e6-b680-0cc47a0d1605 #indianrailways #weekend'
p67
g5
sS'look pic understand ppl indian railways touches slight improvement snowball effects ht/ irfcorfaq/map/ir_net work_schematic_map_largpng'
p68
g5
sS'indian railways treating like football online experience ek table se dusre table pe jao d pitwitter.cohav9gze592'
p69
g5
sS'delhi mumbai 12 hours talgo wil 2 pass 3 tests indianrailways ht/www financialexprescoindinews/tal gtrials-indian-railways-suresh-prabhu-delhi-mumbai-rajdhani-high-speed-trai316425/v4fn6he-xis.twitter @sureshpprabhu'
p70
g5
sS'@beingsalmankhan handbal team fund going participate championship & indian sports minister supporting game'
p71
g3
sS'300 young grassroots level athletes rub shoulders malaysian indian sports sukim fro.. ht/ fm2yvo9c9s4'
p72
g3
sS'99 1 ! indian railways train videos mega compilation htt/ youtb1r28mdrnltq @youtube @sureshpprabhu @railminindia @pmoindia'
p73
g5
sS'ht/ ift29q2cno sports minister vijay goel visits ailing hockey legend mohammad shahid indian sports minister vijay goel'
p74
g3
sS'@sureshpprabhu hbd man shown indian railways managed changed god bles'
p75
g5
sS'china invented chromplating technology 200 years ago germany 1937 1950 indian defence forum ht/ defenceforumindicoforum/threads/ chininvented-chrome-plating-technology-2-200-years-ago-germany-1937-us-19535812'
p76
g7
sS'hapy bday sir @sureshpprabhu ur lucky shre ur bday wid #bahudajatra lord jagannath bless u & u doing wonders #indianrailways'
p77
g5
sS'@mpparimal good news indian sports'
p78
g3
sS'#transformingindia 163yrthe indian railways friday introduced train engine fitted toilet pitwitter.cor5la1ifzuo'
p79
g5
sS'indian railways trial talgo train achieves target speed 180 kmph htt/ youtbzt_prsxdowo @youtube'
p80
g5
sS'@thebobbydeoll wil shame indian sports minister identify morons javelin throw rio olympics'
p81
g3
s.