(dp1
S'@labhsinghsidhu @ls2008 @indian_defence nawaz sharif read resolution kashmir uttering foolishness kashmir issue'
p2
S'defence'
p3
sS'indian defence forces good example jointness ht/ bil1d27vii'
p4
g3
sS'rt @indian_defence ht/ dlvi41mcmx'
p5
g3
sS'@indian_defence disgusting disgusting disgusting disgusting disgusting disgusting disgusting disgusting disgusting disgustin'
p6
g3
sS'new delhi mice roar indian defence review ht/www indiandefencerevieconews/nedelhi mice-cant-roaug3l3prt2ma.twitter whoa recognizing meow reads parliamen'
p7
g3
sS'auvsi convention shows trends civilian international uavs ht/ dlvi3qgxk1 #world'
p8
g3
sS'renault trucks thales present packaged solutions digitised armoured units indian defence review ht/ bil17polhp'
p9
g3
sS'@mpparimal good news indian sports'
p10
S'sports'
p11
sS'indias techie rockstars jam create companies ring change ht/ dlvi4khddc #india'
p12
g3
sS'suicide attack kills pakistani minister 7 ht/www indiandefenccoforums/pakista 3463suicide-attack-kills-pakistani-minister-7-otherhtml#.ue1gesvmzq8.twitter @indian_defence'
p13
g3
sS'indian defence minister visit saudi arabia k.antony george fernandes v .. ht/ fm246rzzplh'
p14
g3
sS'battle hajipir pass 1965 indian defence review ht/www indiandefencereviecospotlights/bat tlof-hajipir-pass-196uim6_sus3ko.twitter'
p15
g3
sS'@indian_defence mlas & mp really thing r superior y gut d border & prove r real men @military_indian'
p16
g3
sS'uss gerald ford biggest baddest expensive carrier ht/ dlvi42q6qq #world'
p17
g3
sS'engineering terror indian defence review ht/www indiandefencerevieconews/engineeri nterrouihse5bohkg.twitter'
p18
g3
sS'714 rt @indian_defence s. navys 14 tomcat flight 7 years ago today ht/ dlvi44yq1p #world'
p19
g3
sS'antony praful patel babu midwives defence psus great betrayal indian defence review ht/www indiandefencereviecospotlights/def encpsus-the-great-betrayl'
p20
g3
sS'indian defence minister k antony proposed visit #russia #defence'
p21
g3
sS'#talgo @railminindia @sureshpprabhu @gmncr1 congrats team indian railways successful run talgo 180 kmph'
p22
S'railways'
p23
sS'@indian_defence jok? expected indian defence'
p24
g3
sS'agustawestland cancellation showcause notice vvip copters deal extended till nov 26 indian defence ministry'
p25
g3
sS'" @indian_defence syria crisis weighs military options ht/ dlvi3rqrvj #world death knell pls dont agai'
p26
g3
sS'wars china sure fight 50 years indian defence review ht/www indiandefencerevieconews/siwars- chinis-sure-to-fight-in-the-next-50-yearunt1mhqedpa.twitter #russia #india'
p27
g3
sS'facts revealed indian #defence review #bharatverma #newsexpress ignored @narendramodi #pm'
p28
g3
sS'rt @indian_defence ht/ dlvi41qtv0'
p29
g3
sS'king queen nimzo bogo ol..what chances indian champ using indian defence india world #chess championshi'
p30
g3
sS'hapy bday sir @sureshpprabhu ur lucky shre ur bday wid #bahudajatra lord jagannath bless u & u doing wonders #indianrailways'
p31
g23
sS'leave afghanistan britons ask ht/www indiandefenccoforums/s-eur op3501they-leave-afghanistan-britons-ask-%91why-%9html#.umvfsmbmmm4.twitter @indian_defence'
p32
g3
sS'hmmmm rt @indian_defence gen v k singh join bjp sunday ht/ dlvi3yhdlg #india'
p33
g3
sS'indian defence news indiiran relations strategic importance chabahar port ht/www bharatdefencekavacconews/37663_ind iiran-relations-and--strategic-importance-of-chabahar-porhtml#.ulwwyegd1we.twitter'
p34
g3
sS'badar azim does queen efootman live slum ht/ dlvi3pqfsj #india'
p35
g3
sS'awful hindi typography design plagiarism indian defence forces ht/www livefistdefencco2013/09/neia squadron-logo-steals-from-vihtml @shivaroor @livefist'
p36
g3
sS'hot weather set make australia wildfires worse ht/ dlvi49zyrr #world'
p37
g3
sS'aerospace defence exhibition ade2013 seoul indian defence systems draw world attn hope!! ht/ timesofindiindiatimes.coindia/indima kea-stab-at-global-arms-sellinarticleshow/2477654cms'
p38
g3
sS'respect heartiest salute indian defence . #indianarmybemisaal'
p39
S'defence'
p40
sS'values army indian defence review ht/www indiandefencereviecospotlights/val uein-the-armum5ikctogho.twitter'
p41
g3
sS'it time d uniform wearing indian #defence forces modern jeant-shirt wearing western suit wearing&not #dhotiwearing #defminister'
p42
g3
sS'indrussian joint military exercise kicks ht/ dlvi49ztrk #india'
p43
g3
sS'churchill wanted gas indian tribes colonial rule giles milton ht/www indiandefenccoforums/militar history-strateg33704-churchill-wanted-gas-indian-tribes-during-colonial-rule-giles-miltohtml#.ukzcso6hb-e.twitter @indian_defence'
p44
g3
sS'netaji subash chandra bose daughter speaking indian youth ht/ dlvi3y990w #india'
p45
g3
sS'slogan tum muje youth tumhe niraman dungi salute @indian_defence'
p46
g3
sS'iai offer skimmer maritime helicopter conversion kit indian vietnam ht/ dlvi41wv5d #india'
p47
g3
sS'rt @indian_defence cbi raids rajya sabha secretariat fake tickets produced mps ht/ dlvi4fcrmb #india'
p48
g3
sS'need mor.. rt @indian_defence india achieved 50% selreliance defence research making good progress ht/ dlvi3xh3gv'
p49
g3
sS'deal pakistan indian defence review ht/ m1dcxtog'
p50
g3
sS'@indian_defence think p5 listen way best mouth shut job han'
p51
g3
sS'pakistan come indian defence keeps penalty box 1 min #indvspak #indianfootball'
p52
g3
sS'economics defence investment vs deterrence indian defence review ht/www indiandefencerevieconews/thecono micof-defence-investment-vs-deterrencuogulnxqrhg.twitter'
p53
g3
sS'liked @youtube video @kingscrusher ht/ youtbzubfniwibfa nimzo indian defence nicholas pert vs jacob aagard tempo'
p54
g3
sS'time hard look aviation industry indian defence review ht/www indiandefencereviecotimfor-a-har look-at-the-aviation-industrui8yi9u3yos.twitter'
p55
g3
sS'#russia really warming air defence systems commonwealth 2013 air defense exercise ht/www indiandefenccoforums/militar photos-video32291-combat-commonwealth-2013-air-defense-exercishtml#.ujcownbzghy.twitter @indian_defence "'
p56
g3
sS'heard myanmar troops set camps territory time power indian defence'
p57
g3
sS'indian defence minister joins #boycottchogm @#srilanka #chogm #endmilitarization #commonwealth #india pitwitter.cobithayyhcc'
p58
g3
sS'hai..whats going bhaajaapaa rt @indian_defence atal bihari vajpayee niece karuna shukla quits bjp joins congres'
p59
g3
sS'making general indian defence review page 2 ht/ wmp2ndk7w'
p60
g3
sS'workvisasrfi france india indian defence minister plays hopes swift rafale deal ht/ ol2bbdez'
p61
g3
sS'brazil summons canadian envoy spy claims ht/ dlvi45r60n #world'
p62
g3
sS'think bigger #globalinterests @indian_defence #nato warms #europe role #afghanistan ht/ dlvi44dqds #world "'
p63
g3
sS'" @indian_defence eindian army chief admits sponsoring terrorism balochistan ht/ dlvi49zpcy #pakistan needs evidence #geo'
p64
g3
sS'thanks @sureshpprabhu #indianrailways want 1 speed 2 speed 3 speed'
p65
g23
sS'bettencourt affair sarkozy secret cash case ht/ dlvi45r608 #world'
p66
g3
sS'infiltration charge indian defence minister ups ante ht/ bil16mntnp #pakistan #tribune'
p67
g3
sS'@military_indian indian defence minister acceptd dat soldiers killed militants'
p68
g3
sS'rt @constantinox developing indian defence depends indian economy ht/ thnw1asoa3b'
p69
g3
sS'qatar world cup construction leave 000 migrant workers ht/www indiandefenccoforums/worla ffair3347qatar-world-cup-construction-will-leave-4-000-migrant-workers-deahtml#.ukhwscywt9s.twitter @indian_defence'
p70
g3
sS'nepal freeze assets dawood al qaedlinked suspects ht/ dlvi3xzt63 #india'
p71
g3
sS'#indian sports teen sex videos lesbian girls sex videos free geting held sex just girls ht/ 5alouz.ga'
p72
g11
sS'great achievement @indian_defence agnv launching average ranging 5000 kms quite sleepless nights countrie'
p73
g3
sS'6 57 indian defence personnel punjab ht/ olois8c ht/ oli/36pp0'
p74
g3
sS'#pakistan #peace remains chimera indian defence review ht/www indiandefencereviecospotlights/pak istapeace-remains-a-chimera'
p75
g3
sS'indian defence minister k. krishna menon posthumously honoured bangladesh government'
p76
g3
sS'@genrayodierno mt @indian_defence #us #army #captian excels indian armys high altitude warfare school ht/ dlvi3rvzld #india'
p77
g3
sS'ht conclave @agentsaffron interviews secular channels rt @indian_defence time right india hafiz saeed'
p78
g3
sS'plasmbased weapons ht/ dlvi3pphth #world'
p79
g3
sS'saurabh kalia case indian defence minister government make u.. ht/ fm2p224bcez'
p80
g3
sS'#globemaster add wings #indian #defence sector #indianairforce #army #navy'
p81
g3
sS'mesmerizin. #india shld speed it r&d @indian_defence newest drone fly swim &drive missions ht/ dlvi4l3g2n #world "'
p82
g3
sS'chess blitz game 063 nimzo indian defence 02mp4 ht/ youtbxrv_iokfbza @youtube'
p83
g3
sS'@indian_defence sincerely wish &pray fr success oflr_sam 4akash m2 agniv astram1 aibrahmos nukes detterant'
p84
g3
sS'#video #indianrailways #alco kjm wdg3a power #hubbali sc #hyderabad exp #trains #railways htt/www youtubcowatcgijmp 4oxiw pitwitter.cozptc4dqdcb'
p85
g23
sS'@indian_defence kolkata supply route terrorists reason pull major act ther'
p86
g3
sS'@indian_defence experts corruption mismanagement matter works economy mess eventuall'
p87
g3
sS'indian defence news goa wants israeli tourists pray rave ht/ lnkibkacj'
p88
g3
sS'iran face biological mess indian defence review ht/www indiandefencereviecowiliran-face biological-mesuiswbcyw2p0.twitter'
p89
g3
sS'waiting nda come power @indian_defence time right india hafiz saeed ht/ dlvi3psgkq'
p90
g3
sS'@indian_defence @nations_choice @military_indian #jaihind #vandematram vandematram vandematramvandematram pitwitter.co45kxikobkj'
p91
g3
sS'it playing covers 70% worlds surface @indian_defence india play sea war games 22 nations ht/ dlvi3x7b0b #india "'
p92
g3
sS'@indian_defence baltic nato states question russibelarus war games ht/ dlvi40y0jj #world'
p93
g3
sS'usaf releases plan nuclear component ht/ dlvi3srnhn #world'
p94
g3
sS'bjp run india revenue growth indian railways comes naught pitwitter.colboohxd6cj'
p95
g23
sS'indian air force didnt test agusta chopper cag ht/ dlvi3pmt5d #india'
p96
g3
sS'#globalinterests @indian_defence kuwaiti prime minister wants country focus production ht/ dlvi4dpmcf #world "'
p97
g3
sS'drone 1500 ft indian defence review ht/www indiandefencereviecomedia/spdron can-see-what-you-are-wearing-from-17500-feeulapz_bhvby.twitter'
p98
g3
sS'myanmar indias security takes knock indian defence review ht/www indiandefencerevieconews/myanmai ndiasecurity-takes-another-knocuh3uxboafok.twitter'
p99
g3
sS'indian defence minister statement pakista~ indian defence minister k anthoni stated ththere i.. ht/ fm1xpx80msb'
p100
g3
sS'" @indian_defence narendra modi best poll agent manmohan singarun shourie ht/ dlvi3sr8r4 #india @swamy39'
p101
g3
sS'introduction new $100 bills faces setback ht/ dlvi3pxwpw #world'
p102
g3
sS'life @siachen 1of brave & greatest army world #proud indian @military_indian @indian_defence pitwitter.coqxajewwooq'
p103
g3
sS'r25 clark kent engines space launch ht/ dlvi3yfp8f #india'
p104
g3
sS'@sisiro @indian_defence #rupee fall remove new indian corrupt #rupee symbol ht/www saveindianrupeesymboorg #rajivlootdiwas'
p105
g3
sS'nsproof encryption exists doesnt use ht/www indiandefenccoforums/science technolog32883-nsa-proof-encryption-exists-why-doesn%92t-anyone-ushtml#.uj2wfrrezka.twitter @indian_defence'
p106
g3
sS'@gulpanag @indian_defence good bring disciplinreform politics nd wider appeal ppl craving good candidates'
p107
g3
sS'trojan horse nsa scandal shows europe better britain ht/ dlvi4d7flr #world'
p108
g3
sS'" @indian_defence accept china superior border infrastructure ht/ dlvi3wqtrt #india @srisrispeaks'
p109
g3
sS'@indian_defence satisfy lip service hope dont carried away stick national'
p110
g3
sS'#fareast #armsrace #southchinasea @indian_defence #china claims 18 able reach #guam #nuclearweapons ht/ dlvi4kz6ym "'
p111
g3
sS'election outcome 2014 wll important political event india@dt795 @dhakkann_ @s101sid @indian_defence @anupampkher @kushangd'
p112
g3
sS'sardar patels letter jawaharlal nehru tibet indian defence review ht/www indiandefencerevieconews/sardapa telletter-to-jawaharlal-nehru-on-tibeunoyvl4ipiu.twitter'
p113
g3
sS'make proxy war succeed baluchistan indian defence review ht/www indiandefencerevieconews/hoto-ma kproxy-war-succeed-in-baluchistan'
p114
g3
sS'nigerian military kills scores insurgents ht/ dlvi4cdrbg #world'
p115
g3
sS'#vikramaditya combat pak china high seas welcome elite club indian defence minister .. ht/ fm2n9whtlsk'
p116
g3
sS'chinas interests shaksgam valley indian defence review ht/www indiandefencerevieconews/chinain terestin-shaksgam-valleulej2vchjve.twitter'
p117
g3
sS'" @indian_defence swiss region set ban fulface veil ht/ dlvi41bzgw #world france swiss region set ban burkhas'
p118
g3
sS'formation <b>telanganab> state page 18 indian defence analysis special ap ht/ gogfb/tgkas'
p119
g3
sS'#india rises biggest weapons buyer ht/www indiandefenccoforums/indian defencindustr36065-india-rises-biggest-weapons-buyehtml#.un-5hc2i5mm.twitter @indian_defence'
p120
g3
sS'@thinking_major @briw74 @indian_defence trust 1920s western involvement russian civil war worse'
p121
g3
sS'indian railways need business management principles budget speeches quartz #businessmanagement ht/ dlbdtfkj'
p122
g23
sS'chinas asian age depends spliting india indian defence review ht/www indiandefencerevieconews/chinaas iaage-depends-on-spliting-indiunhzmxvblso.twitter'
p123
g3
sS'maoists prism victims indian defence review ht/www indiandefencereviecospotlights/mao istthrough-the-prism-of-their-victims'
p124
g3
sS'indian defence minister antony went minor prostate surgery today army hospital delhi stay couple day'
p125
g3
sS'opening bogo indian defence monticelli trap e16 chess club live opening theory number 2759 th.. ht/ fm2snn7eqy5'
p126
g3
sS'unusual sid.. rt @indian_defence military action #syria ht/ dlvi3tmgrc #world'
p127
g3
sS'@indian_defence terrorist cor'
p128
g3
sS'indian defence minister ak antony leave delhi today day visit #russia commission naval ship #insvikramaditya'
p129
g3
sS'riot victims justice gujarat'
p130
g3
sS'sameer chauhan analyses simulation culture indian defence forces ht/www clawiwilindu-wind falthe-simulation-culture-in-indian-defence-forces-sameer-chauhahtml'
p131
g3
sS'comprise case border rt @indian_defence indibangladesh border conference begins ht/ dlvi3rf3yk #india'
p132
g3
sS'@military_indian @indian_defence love religion matter nation love !! #jaihind #jaiho #jaibharat pitwitter.codyftztxv9d'
p133
g3
sS'thoriufueled automobile engine needs refueling century ht/ dlvi4ffmfm #india'
p134
g3
sS'rounup indian defence news srael set usurp $1 billion supply india th.. ht/ bil1fyoom8'
p135
g3
sS'@ac_navalhistory @indian_defence interesting view current situation uk evidently denied approval use bases recon'
p136
g3
sS'@mirzasania congrats release book needs lot confidence courage write autobiography indian sports legend'
p137
g11
sS'oh @indian_defence brazil plans offline ucentric internet ht/ dlvi46hk2r #world'
p138
g3
sS'#pacificpivot face #sequestration @indian_defence significantlyboostsmilitaryfundingforsoutheastasia ht/ dlvi3swxz0 #world "'
p139
g3
sS'goo counter pakistan needed better finish indian defence caught field #indvspak'
p140
g3
sS'india laments submarine indian defence minister ak antony describes huge explosions o.. ht/ bbi15cy8bc'
p141
g3
sS'delhi mumbai 12 hrs #talgo pass 3 tests #indianrailways ht/ fexisba241812 pitwitter.covft1etn4fu'
p142
g23
sS'developing indian defence ht/ gogvtefjd'
p143
g3
sS'india shining daily ht/ papelindiashining_ stories today @prabhuchawla @indian_defence @vikramgee'
p144
g3
sS'indichina joint antterrorism military exercise ht/ dlvi4gbcg5 #india'
p145
g3
sS'bofors scam did happen indian defence paying price today delayed artillery acquisitions rg direct rol?'
p146
g3
sS'intriguiging onion trucks b hijacked intriguiging twt handle named @indian_defence @avarakai hey bhagwa'
p147
g3
sS'spike nlos hyum3 showcased south koreas parade ht/ dlvi44f5qw #world'
p148
g3
sS'iaf c 13030 makes historic landing daulat beg oldie dbo indian defence review ht/www indiandefencerevieconews/iac-130 30-makes-an-historic-landing-at-daulat-beg-oldie-dbuhqw7qfo_m8.twitter'
p149
g3
sS'@military_indian written essentially lack indian defence preparedness pak & chin'
p150
g3
sS'@indian_defence media shld stop publishing rubbish saeed says end days just terroris'
p151
g3
sS'india lost afghan endgame indian defence review ht/www indiandefencerevieconews/indilos in-afghan-endgamuimvfew4-3c.twitter'
p152
g3
sS'foreign investors stake rbi nod ht/ dlvi3wbqff #india'
p153
g3
sS'#globalinterests @indian_defence indian economy likely recover significantly 2014 imf ht/ dlvi476fvr #india "'
p154
g3
sS'disaster management army continues lead indian defence review ht/www indiandefencerevieconews/disaster managemenwhy-the-army-continues-to-take-the-leaum6g5es_k0j.twitter'
p155
g3
sS'obama&us ok thirt @indian_defence china slows spread islamic terrorism shooting muslims ht/ dlvi49vxkw #world'
p156
g3
sS'carrier testing @indian_defence chinese carrier sea tests training ht/ dlvi3q40st #china "'
p157
g3
sS'hyderabad isis springboard india ht/ disut/2ae6xjc'
p158
g40
sS'indian defence forces leads janmashthami prayers indian defence forces ht/ dlvi3zpn2g'
p159
g3
sS'drdo mulling shifting missiles sea sarlagondi ht/www indiandefenccoforums/indian defencindustr31819-drdo-mulling-shifting-missiles-sea-sarlagondhtml#.uifokb3eqdk.twitter @indian_defence'
p160
g3
sS'advancing borders chinese empire indian defence review ht/www indiandefencerevieconews/thadvan cinborders-of-the-chinese-empirujhz2glkfc4.twitter'
p161
g3
sS'does india need compulsory military training indian defence review ht/www indiandefencerevieconews/doeindi need-compulsory-military-traininunntxyrlwxc.twitter'
p162
g3
sS'indian defence minister clarify chinese incursion opposition indian parliament lo.. ht/ bil17ckocg #tibet'
p163
g3
sS'india lay 14 strategic railway lines near china pak border ht/www indiandefenccoforums/strateg igeopolitical-issue35541-india-lay-14-strategic-railway-lines-near-china-pak-bordehtml#.um3x_6b1ftw.twitter @indian_defence'
p164
g3
sS'@indian_defence 22 use radar vs s35 russian radar provide sufficient targeting information kill'
p165
g3
sS'advanced artillery gun wii .. ht/ gogy2dkzi #advancedartillerygun #drdo #indiandefence pitwitter.coedmsr323mf'
p166
g40
sS'@icecubies @mysterioussworm @crimsonblood67 strategy try use kings indian defence kings indian attack 3'
p167
g3
sS'defenceless minister feels china afraid lost 640kms china pak happy 2 indian defence minister'
p168
g3
sS'circuspeak* news world ht/ papelgittyss/130478 5614 stories today @indian_defence @worldtimeserver @spiwo'
p169
g3
sS'accept china superior border infrastructure ht/ dlvi3wqtrt #india'
p170
g3
sS'rt @whatanews4u #china #pakistan want demilitarization #siachen indian defence review ht/www indiandefencereviecowhchina-and- pakistawant-demilitarization-of-siachen'
p171
g3
sS'national security lt gen prakash katoch indian defence review ht/www indiandefencerevieconews/whanati onasecuritulqpmpkywpm.twitter'
p172
g3
sS'latest apoorva pratap singh daily ht/ papelapoorvapratap edition_if19fbf6496d-11e6-bfc9-0cc47a0d1609 #indianrailways #weareone'
p173
g23
sS'ht/www netnewspublishec189713 indian defence accounts service probationers president india'
p174
g3
sS'contracts signed ye.. @indian_defence independence row scots work #type26 vessels ht/ dlvi4l4qdp #world "'
p175
g3
sS'#indvswi mohammad shami blasting west indian defence seen indian bowler long time taming batsmen kind pace'
p176
g3
sS'prime minister touched turban pleaded helplessnes modi lao rt @indian_defence ht/ dlvi3sr8r4 #india "'
p177
g3
sS'gsat7 india defence satellite launched successfully gsa7 indian defence satellite .. ht/ bil172dvpz'
p178
g3
sS'aircraft russian tanks indian defence ministry clears projects ht/ sm.timesofindia.co/articleshow/2 255865cms'
p179
g3
sS'rt @indian_defence china massive infrastructure build bhutan ht/ dlvi45zzmm #india'
p180
g3
sS'indian railways carries passengers daily entire population large area country like australi'
p181
g23
sS'rt @mossie633 14 rt @indian_defence ht/ dlvi3vzhhg #world'
p182
g3
sS'indian defence secretary rk mathur set lead indian trservice delegation moscow nex.. ht/ fm11ark3rlc'
p183
g3
sS'#indianrailways successfully tests spain #talgo #train running 180 kmph step speedy transport pitwitter.cohmeuuaqdhy'
p184
g23
sS'india lost afghan endgame indian defence review ht/www indiandefencerevieconews/indilos in-afghan-endgamuhxtjdr-lfg.twitter'
p185
g3
sS'indian navy blue water lt gen prakash katoch indian defence review ht/www indiandefencerevieconews/indiana vhow-much-blue-wateuheouarv0p0.twitter'
p186
g3
sS'@indian_defence photo kolkata army cdr ther'
p187
g3
sS'gifting away indian territory rise bandicoots indian defence review ht/www indiandefencerevieconews/12598gift inaway-of-indian-territory-the-rise-of-the-bandicootuiovrwg9ydm.twitter'
p188
g3
sS'@indian_defence exported muslim world larg'
p189
g3
sS'dependable indian organisations 1 indian defence forces 2 rashtriya swayam sewak sangh 3 bhartiya janta party'
p190
g3
sS'@indian_defence internal affairs pls safe ur internal freedom fighters #pakistan #india'
p191
g3
sS'sharal-sheikh unga nuclear liability afghanistan detriment indian defence energy foreign policy interests 3'
p192
g3
sS'vladimir putin topples barack obama forbes magazine list powerful people ht/ dlvi4dpckn #world'
p193
g3
sS'@indian_defence india bans gmail gov workers snowden ht/ dlvi3tdsvw #india ..only way govt officials email'
p194
g3
sS'tactical jet unveiled ht/ dlvi3zwg27 #world'
p195
g3
sS'saw coming rt @indian_defence israel make helmets 35 fighter ht/ dlvi47rvd8 #world'
p196
g3
sS'havent heard b4 ? rt @indian_defence russia ready help india achieving selreliance ht/ dlvi41f2pq #india'
p197
g3
sS'kishtwar riots beginning ethnic cleansing indian defence review ht/www indiandefencerevieconews/kishtwar riotthe-beginning-of-ethnic-cleansinukqjjk7g6ew.twitter'
p198
g3
sS'@filter_c @acorn @seemasirohi indius defence cooperation oversold indian defence minister uncomfortable intimacy'
p199
g3
sS'@indian_defence yelahanka station records region highest flying hours ht/ dlvi44gp4k #india'
p200
g3
sS'imminent threat china brings vietnam closer india ht/ dlvi3w7jbn #india'
p201
g3
sS'china developing worlds 1800ton doublhull aircraft carrier ht/ dlvi46cbms #china'
p202
g3
sS'@indian_defence @military_indian #sindh historical country ur neighbour suffering slavery #pakistan u recognise #freesindh'
p203
g3
sS'evolution indian submarine arm indian defence review ht/www indiandefencerevieconews/evolution of-the-indian-submarine-arugzd1va2m5o.twitter'
p204
g3
sS'rt @indian_defence hitler rise india ht/ dlvi41c4v8 #world #modi hitler no?'
p205
g3
sS'american servers rt @indian_defence india overtake internet usage 2014 ht/ dlvi4l6jn2 #india "'
p206
g3
sS'sunset soldiering lt gen raj kadyan indian defence review ht/www indiandefencerevieconews/sunset soldierinuj5otqp5hds.twitter'
p207
g3
sS'@indian_defence global times decide policies indi'
p208
g3
sS'chinese troops intrude arunachal stay days ht/ dlvi3rnc4q #india'
p209
g3
sS'having bagged indian defence contracts worth $8 billion recent years muscling russi.. ht/ bil15xobrc'
p210
g3
sS'@indian_defence chinas military intent evident ht/ dlvi3scqy0 #india @narendramodi'
p211
g3
sS'leadership really matters ht/ dlvi48dm5b #world'
p212
g3
sS'sls relationship china questioned visiting defence officials gotabaya ht/ dlvi3vjwtv #india'
p213
g3
sS'year akash sam service ht/ dlvi3r5k9v #india'
p214
g3
sS'shud test china @indian_defence chinese military vows counterattacks japan shoot drones ht/ dlvi4cctbf'
p215
g3
sS'india china border conundrum indian defence review ht/www indiandefencerevieconews/thindia china-border-conundruukq6be6zwbw.twitter'
p216
g3
sS'mt @indian_defence #india s super sukhoi vs #china  s35 better aircraft ht/ dlvi3xpptb cc @apdc_airpower'
p217
g3
sS'@indian_defence sk catches s71 tech 35 stealth built structural element'
p218
g3
sS'effective @indian_defence al qaeda set antdrone cells secret documents post ht/ dlvi3vhw0n #world'
p219
g3
sS'@indian_defence attitude indian government probably pull fence border offer citizenship'
p220
g3
sS'uindia defence trade sizing competition indian defence review ht/www indiandefencerevieconews/uindia- defenctrade-sizing-up-the-competitiouncynpfmt2g.twitter'
p221
g3
sS'" @indian_defence ufo taj mahal captured video sighting india military troops ht/ dlvi3r09mh #india believe'
p222
g3
sS'180 kmph talgo completes mathurpalwal journey 38 minutes indian railways conducted sec.. ht/ bil29rbgpr'
p223
g23
sS'nepal army receive consignment military assistance india ht/www indiandefenccoforums/strateg igeopolitical-issue35269-nepal-army-receive-first-consignment-military-assistance-indihtml#.umi_olxxr0c.twitter @indian_defence'
p224
g3
sS'prolonging swadeshi wet dream developing indian defence hindu mobile edition ht/ thehindu.coopinion/interv iedevelopina-more-indian-defence/article504567ece/'
p225
g3
sS'@indian_defence amazing stories thought isi gets cold kameez shivers soon mention raw lo'
p226
g3
sS'@indian_defence chinese army intrudes arunachal refuses vacate ht/ dlvi3psgm0 #india @srisrispeaks'
p227
g3
sS'bad days indian defence personne..whole month bad #indiannavy'
p228
g3
sS'mt @indian_defence chile remember exclusive video report 1973 coup ht/ dlvi3xwkcg "'
p229
g3
sS'#asiacup13 solid indian defence led raghunath ramandeep'
p230
g3
sS'@mickryan09 #india lost #afghan endgame indian #defence review ht/www indiandefencerevieconews/indilos in-afghan-endgamuimvfew4-3c.twitter'
p231
g3
sS'@sardesairajdeep did pay attn report sunday guardian documented mysterious deaths indian defence scientist'
p232
g3
sS'@indian_defence turkish training aircraft hurkus maiden flight successfully'
p233
g3
sS'that boys relate congrats indian railways talgo train pitwitter.cokydjo7cfx5'
p234
g23
sS'@indian_defence set books used brain wash pakistan population large bread intolerance non believer'
p235
g3
sS'@indian_defence need assertive decision making face chinese aggressio'
p236
g3
sS'military grid violence indian defence review ht/www indiandefencerevieconews/military thgrid-of-violencuobaattoxiy.twitter'
p237
g3
sS'kashmir indichina-pakistan triangular conflict indian defence review ht/ bil15jmb37'
p238
g3
sS'apple samsung disclose profit details court ht/ dlvi3rvzt1 #world'
p239
g3
sS'aircraft carrier uss theodore roosevelt needs repairs overhaul ht/ dlvi42q6r8 #world'
p240
g3
sS'court foils police bid shield shahi imam bukhari ht/www indiandefenccoforums/nationa politic20436-court-foils-police-bid-shield-shahi-imam-bukharhtml#.uimismsugfq.twitter @indian_defence'
p241
g3
sS'@reuters indian defence minister rt akanthony says china scared india dainik'
p242
g3
sS'tarmak007 - bold blog indian defence avatars space scientist kathakali spir.. ht/ tarmak00blogspot.co2013/11/avatar of-space-scientist-of-kathakalhtmspretw'
p243
g3
sS'good nigh. r herloc nation #jaihind @military_indian @indian_defence pitwitter.cooeppou0rtm'
p244
g3
sS'gifting away indian territory rise bandicoots indian defence review ht/www indiandefencerevieconews/12598gift inaway-of-indian-territory-the-rise-of-the-bandicootui33bgy2yqs.twitter time pm dm fm & hm resig'
p245
g3
sS'indian defence #proud'
p246
g3
sS'china conducted 4 nuclear blasts tibet 2005 divert brahmaputra ht/ dlvi3tlkfl #india'
p247
g3
sS'indian defence minister ak anthony stated indian defence capability increase manifol'
p248
g3
sS'new delhi sept 6 indian defence minister said new distributed old consolation prize.. ht/ fm2pj0r66vp'
p249
g3
sS'mi25a22 rt @indian_defence ht/ dlvi4l7wtj #world'
p250
g3
sS'@indian_defence russia adding ships pond did include hide n seek olympic'
p251
g3
sS'what story scenes @indian_defence indian tanker allowed leave 26 days detention ht/ dlvi3wc5hv "'
p252
g3
sS'@dodo_bhongar hope soon stands mass violation human rights things ll better @indian_defence'
p253
g3
sS'finally indian navy induct russian aircraft carrier long dela. jewel power boost indian defence ..'
p254
g3
sS'yes return dead body rt @indian_defence time right india hafiz saeed ht/ dlvi3psgkq #india'
p255
g3
sS'ht/ ift29q2cno sports minister vijay goel visits ailing hockey legend mohammad shahid indian sports minister vijay goel'
p256
g11
sS'" @indian_defence bangladeshis happier indians ht/ dlvi43h8vd #world ..in indi?'
p257
g3
sS'thought india bad rt @indian_defence china 23 percent men admitted rape ht/ dlvi47tvxm'
p258
g3
sS'indian defence equipment status & urgent need priritize strategically ht/ intellibriefblogspot.i2013/09/modern isatioand-austerithtml'
p259
g3
sS'@indian_defence hope ailing industry subsidised pds & liquor production paid uneconomic rates input'
p260
g3
sS'@indian_defence arrival cheap chinese phones affect sell iphones rest debat'
p261
g3
sS'jeep crash china tiananmen square leaves dead ht/ dlvi4d2cjm #china'
p262
g3
sS'revisiting india mere spectator great game col danvir singh indian defence review ht/www indiandefencerevieconews/india-m erspectator-in-the-great-game'
p263
g3
sS'@indian_defence pak proxy war proving effective & india shying away open war need pak involve arms race'
p264
g3
sS'forgotten jawan indian defence review ht/www indiandefencereviecothforgotten- jawaui7sjgm32vs.twitter'
p265
g3
sS'iran send caastronaut space ht/www indiandefenccoforums/worla ffair3259iran-send-cat-astronaut-spachtml#.ujfsth8k4js.twitter @indian_defence'
p266
g3
sS'china s. conduct piracy drills @indian_defence ht/ dlvi3swqkg > @goforgold80s'
p267
g3
sS'dangers india indian defence review ht/www indiandefencerevieconews/ththree dangers-to-indiumkp6glq_eo.twitter'
p268
g3
sS'@indian_defence infighting finally able hijack whats truly peoples revolutio'
p269
g3
sS'@sureshpprabhu sir wish happy birthday really proud positive change bringing indian railways'
p270
g23
sS'defence ministry quietly rejected key recommendations naresh chandra taskforc indian defence review ht/www indiandefencereviecospotlights/mil itarbe-included-in-the-national-security-decision-making-loop'
p271
g3
sS'@gulpanag @indian_defence thank god accept date birth preceded birth fellow capable martial law'
p272
g3
sS'1962 war chinese claim fought self defence indian defence review ht/www indiandefencerevieconews/196war- chinesclaim-they-fought-in-self-defence-unqflf3tare.twitter'
p273
g3
sS'pakistan stoner comedy rt @indian_defence punishment death stoning having mobile phone ht/ dlvi43h7k3 #pakistan'
p274
g3
sS'@indian_defence omar abdullah treated belong india ht/ dlvi3pvkk4 #india @srisrispeaks'
p275
g3
sS'hrku realizes maiden flight ht/ dlvi3vlkgt #world'
p276
g3
sS'tunisia islamists resist proposal step ht/ dlvi41ycbb #world'
p277
g3
sS'rt @indian_defence 160 militants 67 civilians killed #drone strikes fa pakistan ht/ dlvi4dzkrm #pakistan "'
p278
g3
sS'indias expanding power gap china kanwal sibal indian defence review ht/www indiandefencerevieconews/indiaex pandinpower-gap-with-chinuooblyissxi.twitter'
p279
g3
sS'#maldives indian hc attacked feb2013 video ht/www ibrahimshoppco2013/10/28/feb 201attack-on-indian-hc-in-maldives @economictimes @newindianxpress @indian_defence'
p280
g3
sS'ry @mossie633 @indian_defence'
p281
g3
sS'motivates young officers training cadets indian defence forc.. .. ht/ fm2jtwxivsg'
p282
g3
sS'pakistan rampan!! faisal dribbles past indian defence riaz final effort pak shaheen.. ht/ fm6y4he9pjn'
p283
g3
sS'indian defence minister antony asks govt agencies issue armed guards cargo ships intl maritime fora @newindianxpress'
p284
g3
sS'indian defence acquisition council nod rs4cr 6 american lockheed martin 130j planes @newindianxpress'
p285
g3
sS'indian defence research development organisation drdo developing bomb emi.. ht/ fm2iwnvui7t'
p286
g3
sS'soldiers nice pakistanis asks common man indian defence review ht/www indiandefencerevieconews/whshoul our-soldiers-be-nice-to-pakistanis-asks-a-common-mauh2bcbsh3ex.twitter'
p287
g3
sS'@indian_defence indrussian military aviation projects schedule hal executive ht/ dlvi3tlhq8'
p288
g3
sS'muslims shunned elopes jat woman ht/www indiandefenccoforums/social currenaffair31185-muslims-shunned-after-one-them-elopes-jat-woman-uhtml#.uhyzfpesrda.twitter @indian_defence'
p289
g3
sS'rt @indian_defence delhi police arrest lashkar terrorist abdu.. ht/ dlvi3pwl8b #india'
p290
g3
sS'pakistan middle chinas balancing act indias dilemma ht/www indiandefenccoforums/indian defencindustr36045-pakistan-middle-china%92s-balancing-act-india%92s-dilemmhtml#.un5akrfgn7m.twitter @indian_defence'
p291
g3
sS'@kbarthwal @neenarai churches getting money west tune indian defence budget checking church money'
p292
g3
sS'#news pakistan tacitly supporting ceasefire violations antony indian defence minister a..read ht/ bil16ki4je #pak'
p293
g3
sS'@indian_defence india china agree peace border ht/ dlvi43w4vr #india'
p294
g3
sS'indian coin @indian_defence maoist rebels kill troops india landmine blast ht/ dlvi3tlqy6 #india'
p295
g3
sS'day 25 years ago indian defence forces airlifted maldives successfully ended coup prez gayoom sl mercenaries'
p296
g3
sS'" @indian_defence 5 pakistani posts destroyed indian army loc ht/ dlvi3qgv7g #india @srisrispeaks'
p297
g3
sS'india france kick higaltitude combat exercise alps monday ht/ dlvi3wqqvd #india'
p298
g3
sS'kargil keran sector indian defence review ht/www indiandefencerevieconews/anothek argiin-keran-sectouk011xdjsim.twitter'
p299
g3
sS'12 rt @indian_defence indioman joint aerial exercise ht/ dlvi460wd0 #india'
p300
g3
sS'indian defence news dhruv helicopter clocks 00,000 flying hours ht/www bharatdefencekavacconews/37908_dhr uhelicopter-clocks-1-00-000-flying-hourhtml#.ulwyoh-edpc.twitter'
p301
g3
sS'tarmak007 - bold blog indian defence navy gets desbuilt hawk ht/ fm2mg3avnyh'
p302
g3
sS'@bhaskarchat want lose 6 decade monopoly indian defence purchase strategic area'
p303
g3
sS'nosint daily ht/ papelkobusnl/130769 1718 stories @jdcushman @natosource @indian_defence'
p304
g3
sS'inter service rivalry impact national security indian defence review ht/www indiandefencerevieconews/inteser vicrivalry-and-its-impact-on-national-securitukzan_nzerk.twitter'
p305
g3
sS'" @indian_defence india targets spying nsa ht/ dlvi41j67x uncle sams got dirt govt #nuclearselloff'
p306
g3
sS'set bag $5bn defence deals . sep 13 2013 114 ist new delhi having bagged indian defence .. ht/ fmykcnmjfm'
p307
g3
sS'mumbai puja buys rs 223 crore insurance ht/ dlvi3wbmvp #india'
p308
g3
sS'rt @indian_defence #india woos japan vietnam challenge china south asia dominance ht/ dlvi4l50gy #india'
p309
g3
sS'punjab tops states prosperity kerala equity ht/ dlvi4j4gbm #india'
p310
g3
sS'@sureshpprabhu happy birthday si. n thanks making indian railways world clas'
p311
g23
sS'dtn military news outgoing indian defence attach meets secretary outgoing indian defence attach capta.. ht/ bil19azcsn'
p312
g3
sS'bbc news india laments submarine indian defence minister ak antony describes .. ht/ bbi15cy8bc mediaintk'
p313
g3
sS'#globalinterests @indian_defence drone strikes violate international law says ht/ dlvi49dwy7 #world "'
p314
g3
sS'gaps maritime securitiii indian defence review ht/www indiandefencereviecointerviews/gap in-maritime-security-iiukklkp_2dgy.twitter'
p315
g3
sS'@indian_defence pls rt story bareface film club selection post independence india independent filmmaker ht/www youtubcowatcejgo5m sfjwg&featuryoutbe&a'
p316
g3
sS'#china intrusion #ladakh gifting away indian territory disinterested politicians article indian defence review ht/www indiandefencerevieconews/12598gift inaway-of-indian-territory-the-rise-of-the-bandicootuil9ug7w6rc.twitter'
p317
g3
sS'madrasa scam 100 institutions getting govt funds exist paper ht/www indiandefenccoforums/nationa politic34221-madrasa-scam-up-over-100-institutions-getting-govt-funds-exist-only-papehtml#.ulwoasrfq08.twitter @indian_defence'
p318
g3
sS'gifting away indian territory rise bandicoots indian defence review ht/www indiandefencerevieconews/12598gift inaway-of-indian-territory-the-rise-of-the-bandicootuka_5l_zfgu.twitter'
p319
g3
sS'army entering politics indian defence review ht/www indiandefencereviecoiarmy-enteri npoliticulqarogaega.twitter'
p320
g3
sS'@indian_defence 10 years retirement join politic! expected better reasoned article mr naya'
p321
g3
sS'#international indpak meet ny control molestation indian defence @sake weak internal politics perfect example democracy'
p322
g3
sS'norteast india place national security calculus indian defence review ht/www indiandefencerevieconews/norteas india-its-place-in-the-national-security-calculuunfya_kfl70.twitter'
p323
g3
sS'@indian_defence india plans tackling chinese incursions 640 skm joke'
p324
g3
sS'military coup toppling j&k government indian defence review ht/www indiandefencereviecofromilitary- couto-toppling-jk-governmenukherugfdfx.twitter'
p325
g3
sS's. navy 14 tomcats shot gaddafis s22 fitters 32 years ago today ht/ dlvi3qx6sw #world'
p326
g3
sS'@nnavjeet served indian defence minister time indchinese 1962 w...'
p327
g3
sS'military arrogance seniority indian defence review ht/www indiandefencerevieconews/military arrogancof-seniorituisriboquoc.twitter'
p328
g3
sS'indian defence news antony examine issues raised patel iaf tender ht/www bharatdefencekavacconews/37909_ant onto-examine-issues-raised-by-patel-on-iaf-tendehtml#.ulwyibjbj0i.twitter'
p329
g3
sS'indian defence minister ak antony wednesday repeated mantra accusing pakistan ceasefire violation line control loc'
p330
g3
sS'kishtwar riots beginning ethnic cleansing indian defence review ht/ m17rygul'
p331
g3
sS'consulate afghanistan rocked multiple blasts gunfire ht/ dlvi3yjw0r #world'
p332
g3
sS'#talgo zooms 180 khr completes mathurpalwal journey 38 mins that indian #railways speed recor'
p333
g23
sS'wc match generate game nimzo indian defence najdorf variation queens gamb.. ht/ fm1des8aluv'
p334
g3
sS'pakistan indias neighbor indian defence review ht/www indiandefencerevieconews/pakistan musnot-be-indias-neighbouhnoxl359jg.twitter'
p335
g3
sS'jamiat chief lashes congress fanning fears modi ht/ dlvi47sclz #india'
p336
g3
sS'@indian_defence @bharat_builder htt/ twitteconeenarai/statu 374512963492663296'
p337
g3
sS'@indian_defence eads north america provide support service cn235 ht/ dlvi42q6ml #world @pietro_nurra'
p338
g3
sS'indian defence minister blames #pakistan #loc violation ht/ shaeihm8h #india'
p339
g3
sS's. pilot scares iranians gunworthy stunt ht/ wtie1fdu1wg @washtimes @theyoungturks @combatair @indian_defence'
p340
g3
sS'@sureshpprabhu happy returns sir best thing happened indian railways long live india needs yo'
p341
g23
sS'latest panchadik ht/ papelmedilberedit ion_i45624284969-11e6-b680-0cc47a0d1605 #indianrailways #weekend'
p342
g23
sS'indian railways tienems 6 millones empleadosconvirtindose en una las empresas ms trabajadores del mundo #antroiies'
p343
g23
sS'pak regulars combine let mujahids taliban india indian defence review ht/www indiandefencerevieconews/paregul arcombine-with-let-mujahids-and-taliban-against-indiulyx7edauae.twitter'
p344
g3
sS'k02300km ht/www chosunonlincosite/data/html _di2013/10/12/201310120077html rt @indian_defence korea developing antship missile ht/ dlvi47gr8m'
p345
g3
sS'china invented chromplating technology 200 years ago germany 1937 1950 indian defence forum ht/ defenceforumindicoforum/threads/ chininvented-chrome-plating-technology-2-200-years-ago-germany-1937-us-19535812'
p346
g40
sS'pakistan unable match india economically & militarily ht/www indiandefenccoforums/indian strategiforce33531-pakistan-unable-match-india-economically-militarilhtml#.uksatf_3ikc.twitter @indian_defence'
p347
g3
sS'@indian_defence direct platform mms armor unmanned turret actio'
p348
g3
sS'wasting time rt @indian_defence israeli jets bomb lebanon target rocket strike ht/ dlvi3rxsnw #world "'
p349
g3
sS'ha h. advaniji joining sp @indian_defence atal bihari vajpayee niece karuna shukla quits bjp joins congre"'
p350
g3
sS'#telangana formation telangana state page 57 indian defence analysis ht/ ol2bwjis'
p351
g3
sS'@pmoindia @narendramodi meets eye suggest office investigate ht/www thehindubusinesslincotodaypaper/t newgovt-accepts-indian-railways-finance-commissioners-voluntary-retirement/article884582ece'
p352
g23
sS'@indian_defence pitwitter.co1fyezogaai'
p353
g3
sS'added video @youtube playlist ht/ youtbh4wuu9kdofa garry kasparov vs boris spassky niksic 1983 kings indian defence'
p354
g3
sS'#fareast #armsrace #globalinterests @indian_defence abe vows boost japan defence amid provocations" ht/ dlvi3yymty #world "'
p355
g3
sS'pakistan briefs p5 envoys kashmir situation .. ht/ idrorpakistabrief p5-envoys-kashmir-situation'
p356
g40
sS'infoheaders journal #defense ht/ papelinfoheaders/13 69247770 stories today @commoncenser @indian_defence'
p357
g3
sS'destroying police services gujaramodi set eyes indian defence servicelet vanzara create'
p358
g3
sS'indian defence minster says pm sh boycott #chogm hw international community accepts srilanka #lka humanrights violatioweird #india'
p359
g3
sS'@indian_defence extremist forces #pakistan involved terror #india harm world peace #jsmm'
p360
g3
sS'bomdetecting lasers improve security checkpoints ht/ dlvi3ysftn #india'
p361
g3
sS'look carefully indian defence policies mil structuring r meant total offensive action..d biggest threat pak interna'
p362
g3
sS'#indian defence minister actually try substantiate clear #pakistan army regulars involved border attack'
p363
g3
sS'ak antony laments india submarine bla.......... indian defence minister ak antony ha.. ht/ fm2lmkrfinl'
p364
g3
sS'@indian_defence feather cap india implement border protection policy approval neighbour'
p365
g3
sS'#airforce day lecture iaf wings indian #defence wing commander retd h r parthasarthy o.. ht/ fm3mou6iuwk'
p366
g3
sS'chinese goal indias isolation encirclement indian defence review ht/ m18zwvwq'
p367
g3
sS's r @indian_defence angry outburst scientist c n r rao calls politicians ht/ dlvi4l6nld #india "'
p368
g3
sS'mu90 torpedo enters royal australian navy service ht/ dlvi46c7hb #world'
p369
g3
sS'@defencepk kindly change title indian defence order masses especially pakistanis confusion thank'
p370
g3
sS'check china indian defence review ht/www indiandefencerevieconews/hoto-ch ecchinumd0vi_bhqk.twitter'
p371
g3
sS'rt @indian_defence navy says sabotage didnt sink sindhurakshak ht/ dlvi40c7jf #india'
p372
g3
sS'sandeep n indian defence solid #indianhockey'
p373
g3
sS'continue j&k rebels pakistan tells hurriyat ht/ dlvi4klh0h #india'
p374
g3
sS'great country capable #not time'
p375
g40
sS'indian defence minister ak antony says explosion submarine carrying 18 sailors shocking tragedy ht/ bbi19hzwob'
p376
g3
sS'indian defence act position weakness analysts firstpost ht/ g52fss'
p377
g3
sS'indian defence ministry says navy personnel board ilfated submarine missing'
p378
g3
sS'developments stealth technology indian defence review ht/www indiandefencerevieconews/developme ntin-stealth-technologui6chicjlia.twitter'
p379
g3
sS'22 osprey options india indian defence review ht/www indiandefencerevieconews/22-ospr eoptions-for-indiuj1h242hze4.twitter'
p380
g3
sS'true world #muslims minority rt @indian_defence danes tolerant muslims ht/ dlvi48z3nh'
p381
g3
sS'indian young man support indian military indian defence centre'
p382
g3
sS'uh oh report russia transferred 300 missiles syria ht/www indiandefenccoforums/worla ffair3224report-russia-transferred-s-300-missiles-into-syrihtml#.ujaf4rtts7w.twitter @indian_defence'
p383
g3
sS'indian defence forum sub forum balochistafreedom struggle ht/ bil16fud7b #pakistan "'
p384
g3
sS'manipuri friends say saw rt @indian_defence rest india imagine situation manipur ht/ dlvi3whc4m'
p385
g3
sS'pakistan tesfires hatf ix nasr missile ht/ dlvi4gcb33 #pakistan'
p386
g3
sS'mark honour . indian defence revie. htt/www faceboocopermalink.php story_fbi518788151540820&id=217768884976083'
p387
g3
sS'@military_indian missed yu guys vacatio. spoke yu guys educated indian defence thank'
p388
g3
sS'@indian_defence medals pilots drones #wtf'
p389
g3
sS'rt @indian_defence israel orders 3 fast patrol craft iai ht/ dlvi43tg9z #world'
p390
g3
sS'unwillingness indian defence planners equip fighting man asymmetric warfare costs lives lessons learnt lat'
p391
g3
sS'declaracin ministro defensa india sobre tragedia ssk indian defence minister statement submarine tragedy ht/ bil15znhmx'
p392
g3
sS'india shining daily ht/ papelindiashining_ stories today @indian_defence'
p393
g3
sS'" @indian_defence iranian man executed alive morgue ht/ dlvi48w1c6 #world "'
p394
g3
sS'countrys aerial defence impregnable nawaz sharif ht/ dlvi46x7ry #pakistan'
p395
g3
sS'posturing just prudent forward patrolling @indian_defence 2 syrian air force s24 fly cyprus ht/ dlvi3wvthz #world "'
p396
g3
sS'indias open secrets effects sovereignty democracy indian defence review ht/www indiandefencereviecospotlights/ind iaopen-secrets-effects-on-sovereignty-and-democracuinac-2ty68.twitter'
p397
g3
sS'mahindra protection vehicle ht/ dlvi41szb6 #india'
p398
g3
sS'5 pakistani posts destroyed indian army loc ht/ dlvi3qgv7g #india'
p399
g3
sS'#defenceofficersinbusiness daily ht/ papeldefenceinbiz/1 316239902 stories today @indian_defence @lowyinstitute @defencetalk'
p400
g3
sS'hai? rt @indian_defence pakistan urges india continue dialogue resolving issues ht/ dlvi3rkcvq #pakistan'
p401
g3
sS'indimyanmar border extremely porous says mha ht/ dlvi4dpxtf #india'
p402
g3
sS'pakis masquerading indians creating indian defence sitemany indians fall exposed forum ht/ defenceforumindicoforum/showthre aph24602'
p403
g3
sS'buy mansion rolls royce free ht/ dlvi4lwbz6 #world'
p404
g3
sS'triple whammy terrorist threat south india indian defence review ht/www indiandefencerevieconews/triplwh ammterrorist-threat-to-south-indiujhrkd0nwaq.twitter'
p405
g3
sS'pakistan arms race country says sharif ht/ dlvi458z8j #pakistan'
p406
g3
sS'corrupt classrooms cripple india military ht/www indiandefenccoforums/strateg igeopolitical-issue31275-corrupt-classrooms-cripple-indias-militarhtml#.uhi0lswnxy8.twitter @indian_defence'
p407
g3
sS'@ac_navalhistory @briw74 @indian_defence pakistani contingent armour usmc brought later'
p408
g3
sS'indian police intrusion sparks anger nepal ht/ dlvi40dkbz #india'
p409
g3
sS'attack syria competitive shisunni gas pipelines politics indian defence review ht/www indiandefencerevieconews/attacon syria-competitive-shia-sunni-gas-pipelines-politicuig4r27acwg.twitter'
p410
g3
sS'auxiliary combat aircraft ht/ amphibiousnecessitblogspot.co.u2013/07/jun2 01notes-possibilities-ohtml good thought idea @indian_defence ht/ dlvi4ftxkg #world "'
p411
g3
sS'indian defence proc nightmare force1st corruption exposemoney losblacklisting suppliers screws forces & preparednes'
p412
g3
sS'gripen taking mantle 16 @indian_defence thailand receivegripen fighter jets today ht/ dlvi3vzhh7 #world "'
p413
g3
sS'wars china sure fight 50 years indian defence review ht/www indiandefencerevieconews/siwars- chinis-sure-to-fight-in-the-next-50-yearumd4prf-8fq.twitter'
p414
g3
sS'challenges indias indigenous naval buildup ht/ dlvi41jf6s #india'
p415
g3
sS'rt @indian_defence india manufacturing hits year low china rebounds ht/ dlvi3vjt94 #india #bharatnirman'
p416
g3
sS'analysis #india wish day 1 appeasement works avowed enemy indian defence review ht/www indiandefencerevieconews/ipakist asplinteruotuep_97va.twitter'
p417
g3
sS'@indian_defence french air forces nuclear deterrence drills mirage 2000n ht/ dlvi43w4x4 #world'
p418
g3
sS'france investment program future allocates 25 million ariane 5 upgrade ht/ dlvi3vzxcj #world'
p419
g3
sS'developing indian defence ht/ bil14fjbtw #india'
p420
g3
sS'@indian_defence cbi closes mulayam singh yadav disproportionate assets case ht/ dlvi40yndh #india upa allianc!!!'
p421
g3
sS'gsa7 indian defence satellite launched european arianespaces ariane 5 rocket th.. ht/ fm2ocixipvb'
p422
g3
sS'rt @indian_defence canada new defense hq bugged ht/ dlvi444ttj #world'
p423
g3
sS'@timesnow finding new new ways making money popularity talents indian sports athelectic'
p424
g11
sS'number romanians bulgarians working uk grows 26% ht/ dlvi3pqfsc #india'
p425
g3
sS'@darshakhathi bhaiya'
p426
g3
sS'it #eyesore #indian #defence #minister wear #dhoti public modern agkeep #dhoti #loyalty #ma & public'
p427
g3
sS'nuclear weapons accident waiting happen ht/ dlvi3yjdnj #world'
p428
g3
sS'wars china sure fight 50 years indian defence review published translated version .. ht/ hhil/46238'
p429
g3
sS'@indian_defence israel alert amid possible strike syria ht/ dlvi3t46by #world'
p430
g3
sS'#indian defence minister k anthony threatened pakistan refrain acts fuelling tensions expres'
p431
g3
sS'new procurement procedure drdo indian defence review ht/www indiandefencereviecospotlights/new procurement-procedure-and-drdui02aethzz0.twitter'
p432
g3
sS'dassault delivers lot 4 production rafale ht/ dlvi40c8dd #world'
p433
g3
sS'itbp create 35 new border posts china border ht/ dlvi3tyh4k #india'
p434
g3
sS'@indian_defence anti indian elements working time indian government sticking rhetorics onl'
p435
g3
sS'kargil blood guts indian defence review ht/www indiandefencereviecomedia/kargil/#.uiy0sjisbts.twitter'
p436
g3
sS'chinas air force aerobatic display team attend air abroad ht/www indiandefenccoforums/militar photos-video31020-china%92s-air-force-aerobatic-display-team-attend-first-ever-air-show-abroahtml#.uhmt6b-laau.twitter @indian_defence'
p437
g3
sS'tomorrow rt @indian_defence india test china killer agnv icbm ht/ dlvi3ynsx2 #india'
p438
g3
sS'rajapaksa model combating terror indian defence review ht/www indiandefencereviecospotlights/the rajapaksa-model-of-combating-terrounry_vz9t6m.twitter'
p439
g3
sS'sir u demand immediate action goi allegations covert ops indian defence scientists @ncbn @naralokesh'
p440
g3
sS'pak army shoots 5 indian posts loc violates ceasefire ht/ dlvi3xqh1h #india'
p441
g3
sS'@ac_navalhistory @indian_defence reason pafa match 2.. impossibly complicated prohibitively expensiv'
p442
g3
sS'@gen_vksingh idiots upa & raw match defence establishment indian defence better say pakistani isi army'
p443
g3
sS'salute brave women soldiers indian armed forces insight lady officers ht/ dlvi4gpsv2 #india'
p444
g3
sS'indian defence news fishing community wants continue tn plant stir ht/ fmn3bt4wcn'
p445
g3
sS'north carolina 7th state ban muslim sharia law ht/ dlvi3zz8m4 #world'
p446
g3
sS'@indian_defence sir china developing new j8 unmanned helicopter india reaction launch'
p447
g3
sS'pakistan says evidence balochistan interference shared india ht/ dlvi45dkgv #pakistan'
p448
g3
sS'france india indian defence minister plays hopes swift rafale deal ht/ rfm18ccrjq'
p449
g3
sS'pretentious superpower bums didnt know d urgency #let chaps bumped afsars #loc @adgpi c need @indian_defence'
p450
g3
sS'getting @indian_defence russia powering indias ambitious nuclear energy plans ht/ dlvi3w5x1h #india "'
p451
g3
sS'@indian_defence time icbm 1000km beyon'
p452
g3
sS'" @indian_defence radioactive material lies unclaimed years chennai airport ht/ dlvi3tz4bp #india "'
p453
g3
sS'ready save indian extreme critical condition ...i respect u indian defence ... #loveualways'
p454
g40
sS'evolution indian military concepts maj gen sukhwant singh indian defence review ht/www indiandefencereviecospotlights/evo lutioof-indian-military-conceptuhha7ekdgac.twitter'
p455
g3
sS'@indian_defence varify'
p456
g3
sS'" @indian_defence italian marines refused record statements nia ht/ dlvi3plvz5 #india "'
p457
g3
sS'india just pledges eliminates rt @indian_defence india pledge eliminate terrorist safe havens ht/ dlvi42vrrd #india'
p458
g3
sS'@indian_defence iran support hezbollah legitimat'
p459
g3
sS'@onwardkerala @gsurya via-vis imports domestic preferable offset pursued fdi indian defence companies emerge'
p460
g3
sS'osintjournal daily report ht/ papeltheosintjourna 1326056383 stories today @indian_defence @aspi_org'
p461
g3
sS'14 years pakistani troops violate ceasefire kargil sector ht/ dlvi3pntnd #india'
p462
g3
sS'@viraathindu1 contemptuous corrupt antonia tail wagging tongue care @indian_defence @nviswam @prema_raghavan @swamy39'
p463
g3
sS'@indian_defence bangla migration india largest developing world ht/ dlvi3yfy1h #india @rwac48 @ata_hasnain'
p464
g3
sS'@indian_defence just @bdutt defended pak pm #dehatiaurat remaining #paidmedia defended pak army reporting big new'
p465
g3
sS'@indian_defence drone strike north waziristan kills ht/ dlvi3wggxn #pakistan #illegal act terror @un #g20 @bbcr4today'
p466
g3
sS'#taiwan pressing advanced fighters submarines amid warming #china relations @indian_defence ht/www indiandefenccoforums/worla ffair3372taiwan-presses-us-advanced-fighters-submarinehtmutm_sourcdlvr.it&utm_medium=twitter #defence'
p467
g3
sS'ispr #waar says @omar_quraishi report indian defence ministry&army clearing wamonger border sqls ht/www telegraphindico1130319/jsp/na tiostory_1669034jsp#.uminthd87zu'
p468
g3
sS'"when big tree falls ground shakes rajiv gandhi ht/www indiandefenccoforums/nationa politic9589-when-big-tree-falls-ground-shakes-rajiv-gandhhtml#.unn1zncx3da.twitter @indian_defence'
p469
g3
sS'@indian_defence #ikea cracks china market success meant adapting local ways ht/ dlvi3tshrh #china bizarrmust read'
p470
g3
sS'worlds loneliest airplane years aloft 65k feet ht/www indiandefenccoforums/s-eur op3110world%92s-loneliest-airplane-five-years-aloft-65k-feehtml#.uhsh55avpiu.twitter @indian_defence'
p471
g3
sS'play kings indian defence quite bit black particularly interested @youtube ht/ youtbthbx0cbftva'
p472
g3
sS'china probing imports optical fibres india ht/ dlvi3pjbcy #china'
p473
g3
sS'sardar patels letter jawaharlal nehru tibet indian defence review ht/ licom/iyov'
p474
g3
sS'just replied thread indian defence forum ht/ fm2gk9uzkiz'
p475
g3
sS'indian defence news west asia nehru vajpayee remained silent saeed naqvi ht/ fmpojlzkal'
p476
g3
sS'making general indian defence review ht/www indiandefencereviecointerviews/mak inof-a-generaulaot6yibto.twitter'
p477
g3
sS'rt @indian_defence india monrail service set launched ht/ dlvi49jy8v #india'
p478
g3
sS'#indian planes cripple qinghatibet railwavia @indian_defence ht/ dlvi43ktqn #china'
p479
g3
sS'chinese coming indian defence review ht/www indiandefencerevieconews/chinesa rcominuikjnfpdj-u.twitter'
p480
g3
sS'indian defence minister urges pm boycott srilankan chogm .. indian ruling party saw division .. ht/ bil1audlqc'
p481
g3
sS'@triikone tried researching indian defence people stories easier just blame toi ndtv'
p482
g3
sS'bangladeshi migration india largest world udesa report india going pay heavy price ht/ toi5b3a @indian_defence'
p483
g3
sS'rt @indian_defence ht/ dlvi4cnngq #world'
p484
g3
sS'@indian_defence syria proposed hand chemical weapons state maniacs wants ravage & destroy israel'
p485
g3
sS'@narendramodi want work rakshashakti university contribute indian defence forces guide'
p486
g3
sS's71 future @indian_defence secret s71 blackbird middleeast ht/ dlvi3vg8x4 #world "'
p487
g3
sS'way trade pushing terrrorists evergreen rt @indian_defence loc tension wont affect trade dar ht/ dlvi3qzjkm #pakistan'
p488
g3
sS'#kashmir #kerala @indian_defence kashmir case jihadists confirm role malayalis ht/ dlvi450mz7 #india'
p489
g3
sS'gaps maritime securiti indian defence review ht/www indiandefencereviecointerviews/gap in-maritime-security-ujcbg-zzpzo.twitter'
p490
g3
sS'@yourmrbumbles hm different mindset like disgusting indian defence lawye'
p491
g3
sS'bhutan chinese grab land indian defence review ht/ licom/fmky'
p492
g3
sS'rt @indian_defence bae promises revolutionary ew technology ht/ dlvi40ffjk countering unkown unknowns rumsfeld approv'
p493
g3
sS'travelling shatabdi time #indianrailways'
p494
g23
sS'"the modern little red riding hood reared indian defence objection eaten wol goa ht/ fm1tm4irypa'
p495
g3
sS'inside kaaba ht/www indiandefenccoforums/members roo8641-what-inside-kaabhtml#.ulerczpxors.twitter @indian_defence'
p496
g3
sS'@defencenewsind defence news thought twittter account making indian public aware abt indian defence'
p497
g3
sS'sec dilemma @indian_defence brahmos missiles substantially increase strike capacity india armed forces ht/ dlvi3tlqwf #india'
p498
g3
sS'" @indian_defence india build tsunami warning s china sea ht/ dlvi48jmrp #india "'
p499
g3
sS'@indian_defence 4 italian marines come india arrested 2 does nia reject idea distance hearin'
p500
g3
sS'@dkcooper2 @indian_defence said sir news coming dec 16 gangrape convicts invoke #mahatmagandhi oppose death penalty'
p501
g3
sS'iran deploys air defense shield vital economic centers ht/ dlvi3tt8wx #world'
p502
g3
sS'1 month warranty @indian_defence 31 stealth fighter designed export says pla admiral ht/ dlvi42kpgc #china "'
p503
g3
sS'" @indian_defence steps make indian parliament effective ht/ dlvi3wqwr1 #india @pmoindia @indiandiplomacy'
p504
g3
sS'#cool @indian_defence intercontinental ballistic missile launch seen international space statio ht/ dlvi475jkd #world "'
p505
g3
sS'@httweets @the_hindu @timesofindia @indian_defence @ndtv #maldives jp member dr saud warned attack #india inside si"'
p506
g3
sS'indian defense exports constrained lack clear policy ht/ dlvi3wms8f #india'
p507
g3
sS'article published indian defence review link ht/www indiandefencerevieconews/chinaas iaage-depends-on-spliting-india'
p508
g3
sS'tag appropriate grm/drm indian railways asking query sorted faster @sureshpprabhu #indianrailmedia'
p509
g23
sS'article 370 untold story indian defence review ht/www indiandefencerevieconews/articl3 7the-untold-storuh3v9dpflek.twitter'
p510
g3
sS'indian defence minister antony congratulates drdo scientists agn5 succes'
p511
g3
sS'aqaeda set burn ganga post 2014 indian defence review ht/www indiandefencerevieconews/aqaeda- seto-burn-the-ganga-post-2014'
p512
g3
sS'visual sonic bliss @nike indian girl power amazing #justdoit htt/ youtb1uvpz8fd4b8 #girlpower #indian #sports'
p513
g11
sS'make proxy war succeed baluchistan indian defence review ht/www indiandefencerevieconews/hoto-ma kproxy-war-succeed-in-baluchistauk12y5fcymc.twitter'
p514
g3
sS'reading indian defence forums 2010 #saturdaynight'
p515
g3
sS'pakistaindia skirmishes reignite kashmir tensions ht/ dlvi3vjwjh #india'
p516
g3
sS'exercise malabar scaled strategic community resent indian defence establishment.. ht/ fm24pcr33ou'
p517
g3
sS'@indian_defence bureaucratic hassles biggest hindrance modernization armed force'
p518
g3
sS'rt @indian_defence #iran soon display upgraded copy captured s. stealth r170 #drone ht/ dlvi41pzqv #world'
p519
g3
sS'@free_rider trial coaches commercial use indian railways prob ir platform heights concern'
p520
g23
sS'kenya says mall attackers numbered ht/ dlvi4593nz #world'
p521
g3
sS'train speed touched 180 kmph wow ht/www financialexprescoindinews/tal gtrain-achieves-target-speed-180-kmph-indian-railways-tria315207/v4bcwevyiba.twitter @financialxpress'
p522
g23
sS'@indian_defence home minister disclosed plan gets implemented geniu!'
p523
g3
sS'#siliguri north bengal play important role indian defence bagrakot airbase development 4th air bas.. ht/ fmfeyvwngb'
p524
g3
sS'fdi defence dispelling myths indian defence review ht/www indiandefencerevieconews/fdin-de fencdispelling-the-mythujczdqz41lg.twitter'
p525
g3
sS'report north korea developing improved version k02 antship missile t @indian_defence ht/ englischosun.cosite/data/html _di2013/10/14/201310140068htmdeptwitter'
p526
g3
sS'@trivedirajneesh @singhnavdeep indian defence forces need namos undo damages mak antony caused def service'
p527
g3
sS'decipline position indian player. hard malaysian player indian defence .'
p528
g3
sS'kishtwar riots beginning ethnic cleansing indian defence review ht/ licom/giyd'
p529
g3
sS'denmark prioritizes jobs new fighter competition ht/ dlvi3ty0qw #world'
p530
g3
sS'@shenoyn playing brotheon verge losing oftei used topple pieces board saying kings indian defence'
p531
g3
sS'japan pm warns china use force jets scrambled @scoopit @indian_defence ht/ scl7sfilr'
p532
g3
sS'@indian_defence peace & feed starving children'
p533
g3
sS'rank pension obligation fulfilled indian defence review ht/www indiandefencerevieconews/onrank- onpension-an-obligation-to-be-fulfilleuj_9nkgtvpi.twitter'
p534
g3
sS'scary @indian_defence france attack syria pm meet parliament leaders ht/ dlvi3tvfnn #world "'
p535
g3
sS'@indian_defence airforce biggest looser fight hal ia'
p536
g3
sS'attack syria competitive shisunni gas pipelines politics indian defence review ht/www indiandefencerevieconews/attacon syria-competitive-shia-sunni-gas-pipelines-politicui4g1fxtlec.twitter'
p537
g3
sS'@indian_defence dont know army helping indian ve enemy relations china import frm d'
p538
g3
sS'article 370 untold story indian defence review ht/www indiandefencerevieconews/articl3 7the-untold-storujmxg3clhxi.twitter'
p539
g3
sS'mumbai 211 attacks pakistani judicial panel visit mumbai september ht/ dlvi3tlz2w #india'
p540
g3
sS'rt @indian_defence ht/ dlvi3wghbx #india'
p541
g3
sS'" @indian_defence actual 35 unit cost ht/ dlvi42vt5g #world "'
p542
g3
sS'#china mumbai submarine explosion clouds indias naval progress event indian defence .. ht/ bil1ceeedq @diplomat_apac'
p543
g3
sS'indian defence minister antony ins vikramaditya aircraft carrier commissioning today @newindianxpress pitwitter.coctadliwxk4'
p544
g3
sS'shuttle @indian_defence keplenasa retires prolifictelescope planehunting duties ht/ dlvi3plvkn #india "'
p545
g3
sS'kashmiri pandits offered choices radical islamists indian defence review ht/www indiandefencerevieconews/kashmiri panditoffered-three-choices-by-radical-islamistuisonqlizi4.twitter #kashmir zubin mehta'
p546
g3
sS'mars isro confident future missions including gslv ht/www indiandefenccoforums/science technolog35980-after-mars-isro-confident-future-missions-including-gslhtml#.unxkxvvdgbe.twitter @indian_defence'
p547
g3
sS'@indian_defence allowed stop chinese political interferenc'
p548
g3
sS'priority given indian defence minister israeli arms deal sending shock waves islamic world israeli anti muslims act known fact'
p549
g3
sS'@tibetans chinese dream seven perils indian defence review ht/www indiandefencerevieconews/thchine sdream-is-over-the-seven-perilukogr-b3acu.twitter'
p550
g3
sS'invest indias $10 billion defense sector ht/ dlvi3pp6x2 #india'
p551
g3
sS'indian defence research & development org drdo showcase array defense weapon systems seoul adex exhibition ht/ indembassor.kpress_detail.p hni181'
p552
g3
sS'@indian_defence sit parliament got say national policy formation special treatment better thi'
p553
g3
sS'developing indian defence ht/ mobsa152tncw fdi defence & indigenisation vs licensed productio'
p554
g3
sS'@indian_defence state duty maintain law order sp vote bank politics giving justic'
p555
g3
sS'#rahulgandhicondomscam wow condoms vending machines used fuck indian economy indian defence syste,,'
p556
g3
sS'cc coas rt @indian_defence need change leadership attitude army ht/ dlvi48dgq6 #india'
p557
g3
sS'come indian defence rely solely sreejesh attack needs teeth #asiacup13 india lead 0'
p558
g3
sS'anttank nag missile trial conducted ht/ dlvi41yjcj #india'
p559
g3
sS'ok problem import united states gujarat rt @indian_defence tears india pakistan stop supply onions'
p560
g3
sS'latest appointments indian defence sector 1 supreme commander armed forces ~ shri pranab mukherjee .. ht/ fmlmazc7lv'
p561
g3
sS'" @indian_defence crosses 65 chidambaram says reason unwarranted pessimism ht/ dlvi3rltzt #india yeah right save it4 8'
p562
g3
sS'super hornet production line close ht/ dlvi3qwwvh #world'
p563
g3
sS'@indian_defence start build ow..have start better'
p564
g3
sS'apt thumping table house doesnt frighten pak chinanew delhi mice roar indian defence review ht/www indiandefencerevieconews/nedelhi mice-cant-roaug2hswyn3pc.twitter'
p565
g3
sS'1971 war tale unusual victory indian defence review ht/www indiandefencereviecomedia/197war uiyzmlpdqoy.twitter'
p566
g3
sS'@dabangghindu indian defence wing understands respect theme democracy started compromising'
p567
g3
sS'indian defence minister clarify chinese incursion ht/ bil17cqfru'
p568
g3
sS'@indian_defence uttrakhand govt searching locke'
p569
g3
sS'indian defence awards ht/www bit4alcoindiadefence awards ht/ fm2n2f8ioss'
p570
g3
sS'@drshobha @indian_defence r delhites idiot make separatiscommunist kejri wi'
p571
g3
sS'india ready pakistan salman khurshid ht/ dlvi4j4znx #india'
p572
g3
sS'#news bangladesh honours k. krishna menon thiruvananthapuram indian defence minister .. ht/ bil1ci9gyc #englishnews'
p573
g3
sS'10 years service eurofighter pegs hopes india ht/ dlvi3r5k9w #india'
p574
g3
sS'bomb kills seven antpolio campaign pakistan ht/ dlvi45yk8m #pakistan'
p575
g3
sS'chinas asian age depends spliting india indian defence review ht/www indiandefencerevieconews/chinaas iaage-depends-on-spliting-indiunqkptvyrmw.twitter'
p576
g3
sS'rt @indian_defence western attack punish #syria likely begin barrage 100 missiles ht/ dlvi3sr48x #world'
p577
g3
sS'@aajtak indian defence minister lack concern surprised chines pla capturing indian ladkh'
p578
g3
sS'@sureshpprabhu happy birthday sir ray hope indian railways adding incremental improvement indian railways'
p579
g23
sS'#india #military discipline gone wrong #army recast officer cadre indian defence review ht/www indiandefencereviecomilitardisci plinrecast-officer-cadrumogjatotr4.twitter'
p580
g3
sS'spying costly ineffective ht/ dlvi3tlhmp #world'
p581
g3
sS'russia ready negotiate india mi35 fighters indian defence news ht/www indiandefencerevieconews/russire adto-negotiate-with-india-on-mig-35-fighters'
p582
g3
sS'indian defence minister ak antony russian counterpart discuss fgfa mta s30 & 90 license build projects 13th irigmt'
p583
g3
sS'dealt heroin subjected wife year terrorise ht/ dlvi43htqj #world'
p584
g3
sS'" @indian_defence indus bilateral naval exercise begin tomorrow ht/ dlvi4g2rvx #india "'
p585
g3
sS'german police thwart model airplane bomb ht/ dlvi3xbvxc #world'
p586
g3
sS'google hiding mystery barge ht/ dlvi4dfkwl #india'
p587
g3
sS'dassault rafale analysis ht/www indiandefenccoforums/s-eur op3128dassault-rafale-analysihtml#.ui0osd33gao.twitter @indian_defence'
p588
g3
sS'cygnus cargo craft leaves iss ht/ dlvi4bmdny #india'
p589
g3
sS'#ithappensonlyinindia indian defence minister defends pakistna indian parliament killing army ma'
p590
g3
sS'army looks merge cyber electronic warfare @scoopit @indian_defence ht/ scl7dscgd'
p591
g3
sS'#congress going credit th.. @indian_defence outgoing rbi governor subbarao blames govt sinking rupee'
p592
g3
sS'th developing indian defence new drdo chief optimistic progress lca missile .. ht/ bil1asl6xw'
p593
g3
sS'@indian_defence child policy law hard implement communitie'
p594
g3
sS'list indian prisoners war pow pakistan indian defence review ht/www indiandefencereviecointerviews/lis of-indian-prisoners-of-war-pow-in-pakistaum5jhs--s3m.twitter'
p595
g3
sS'@hockeyind 8 mins indian defence sleeping'
p596
g3
sS'@military_indian death heave. #jaihind @indian_defence @nations_choice pitwitter.co2hxyoxpzs3'
p597
g3
sS'#globalreach @indian_defence indian navy ships ins tabar ins aditya visit qatar ht/ dlvi3w3gzz #india "'
p598
g3
sS'gsa7 gsa7 indian defence satellite launched european arianespaces ariane 5 rocke.. ht/ fm6jsov0aw0'
p599
g3
sS'#globalreach support #globalpresence protect #globalinterests @indian_defence mig vikramaditya ht/ dlvi40jqrj #india "'
p600
g3
sS'improving border roads airfields northern sector antony ht/ dlvi3pp6xb #india'
p601
g3
sS'40 girls disappear lakhimpur district assam month ht/ bil1busmfz @indian_defence'
p602
g3
sS'#globalinterests @indian_defence chinese firm completes power project nigeria ht/ dlvi49frwq #china "'
p603
g3
sS'tata reveals 155 mm howitze! ht/www indiandefenccoforums/indian arm2254tata-reveals-155-mm-howitzehtml#.ujfob1m0ebw.twitter @indian_defence'
p604
g3
sS'gifting away indian territory rise bandicoots indian defence review ht/www indiandefencerevieconews/12598gift inaway-of-indian-territory-the-rise-of-the-bandicootuimosassk1g.twitter'
p605
g3
sS'equipment design contracts t26 frigate awarded ht/ dlvi3xqjzd #world'
p606
g3
sS'ties pegged indian appetite technology indian defence review ht/www indiandefencereviecouties-pegged on-indian-appetite-for-technologulqf6n_2n74.twitter'
p607
g3
sS'forces free respond situation loc indian defence minister ak anthony'
p608
g3
sS'military included national security decision making loop indian defence review ht/www indiandefencereviecospotlights/mil itarbe-included-in-the-national-security-decision-making-looum5itl3hly0.twitter'
p609
g3
sS'117 stealth jets flying ht/ dlvi3ytdx7 #world'
p610
g3
sS'poor mapping military survey indian defence review ht/www indiandefencereviecospotlights/poo mapping-by-military-surveuircab39p3u.twitter'
p611
g3
sS'chinese keen relocate textile plants exports ht/www indiandefenccoforums/china/3 175chinese-keen-relocate-textile-plants-exporthtml#.uiwmwry3czc.twitter @indian_defence'
p612
g3
sS'6 rt @indian_defence 6 bomber dangerous liaoning ht/ dlvi45wqh1'
p613
g3
sS'make proxy war succeed baluchistan indian defence review ht/www indiandefencerevieconews/hoto-ma kproxy-war-succeed-in-baluchistaunekerlunmg.twitter'
p614
g3
sS'@pietro_nurra @indian_defence where fun & drama tha'
p615
g3
sS'@indian_defence present constitution prevailing global scenario growing chinese threat jok'
p616
g3
sS'17 heavlift transport plane inducted indian airforce ystrdhope drdo hal invites induction party @indian_defence'
p617
g3
sS'eid sacrificial animals pak cost cars ht/ dlvi487tyn #pakistan'
p618
g3
sS'second time months indian defence minister k. antony dropped critical multilateral engagement asi'
p619
g3
sS'bangladesh honours indian defence minister bangladesh honours indian defence minister mor.. ht/ dlvi45rdb9'
p620
g3
sS'indian railways air india facilitate onward journ3'
p621
g23
sS'russia supports indias sco membership bid lavrov ht/ dlvi44dj4p #india'
p622
g3
sS'@indian_defence india expecting pakistan action responsible 211 bigger joke thi'
p623
g3
sS'@gen_vksingh brought shame indian defence play golf drink chil'
p624
g3
sS'@indian_defence indigenous defence industry priority foreig'
p625
g3
sS'@indian_defence software update keeps 52 forefront bomber fleet ht/ dlvi40pzhj'
p626
g3
sS'forgotten jawan indian defence review ht/www indiandefencereviecothforgotten- jawauj_9o8jorhk.twitter'
p627
g3
sS'@anilkohli54 ok sir sure doubt hv heard regiments thanks 4 responding @indian_defence'
p628
g3
sS'rely fight battles forever @indian_defence austerity continue push defense background ht/ dlvi3xbnj7 #world "'
p629
g3
sS'#insvikramaditya handover indian defence minister byrussian pm presence navy chiefs th.. ht/ fm6vp5drunn'
p630
g3
sS'india slow steady relationship indian defence review ht/www indiandefencereviecospotlights/ind iand-the-us-slow-and-steady-relationshiukvhdcpaa0e.twitter'
p631
g3
sS'@labhsinghsidhu sir said v r prepare govt prepared &kept lot condemn notes 2resist k.. @colnrkurup @indian_defence'
p632
g3
sS'" @indian_defence chinese army occupied 640 square km ladakh sectorreport ht/ dlvi3wf2l3 #india self explanator'
p633
g3
sS'face growing threats < uncertainty @indian_defence japanese defense ministry seeks 3% budget hike ht/ dlvi3tlqh8 #world "'
p634
g3
sS'new conflict mineral certification causing industry concern ht/ dlvi41ytsl #world'
p635
g3
sS'@indian_defence s. army capt excels indian armys high altitude warfare school ht/ dlvi3rvzld #india @nmenonrao'
p636
g3
sS'coherence resolve foreign policy indian defence review ht/www indiandefencerevieconews/coherence and-resolve-in-foreign-policuhcfocoy35s.twitter'
p637
g3
sS'@cricketaakash ya u know china say indian defence minister accepted incursions chineese territor!'
p638
g3
sS'@madhukishwar dont forget immense contribution punjabis indian defence force'
p639
g3
sS'payback time pakistan indian defence review ht/www indiandefencereviecospotlights/pay bactime-pakistaunhc_5edoms.twitter'
p640
g3
sS'chinese game plan bharat verma indian defence review ht/www indiandefencerevieconews/thchine sgame-plauhghgtoiwvy.twitter'
p641
g3
sS'military included national security decision making loop indian defence review ht/www indiandefencereviecospotlights/mil itarbe-included-in-the-national-security-decision-making-loounzkxxgkh4y.twitter'
p642
g3
sS'indian defence minister suited ~ position soft'
p643
g3
sS'ht/www naamthamilaca #tamilnews #tamil #fb #eelam #nadu indian defence advisor arrives .. ht/www naamthamila185841.html'
p644
g3
sS'pakistan indias neighbor indian defence review ht/www indiandefencerevieconews/pakistan musnot-be-indias-neighbouhahzqeximi.twitter'
p645
g3
sS'interesting development pla designing lonrange stealth bomber ht/www indiandefenccoforums/china/3 528pla-designing-long-range-stealth-bombehtml#.umkgvthimw0.twitter @indian_defence'
p646
g3
sS'act saviors @indian_defence shiv sena mla vandalises alwoman toll booth ht/ dlvi3rwm04 #india "'
p647
g3
sS'@indian_defence happened monkey members grand counci'
p648
g3
sS'@nileshmsaraf keh lo em actually teacher preparing @indian_defence & @indcivilservice dono m se kisi ek m selection k lie student'
p649
g3
sS'@sureshpprabhu sir happy returns day leadership indian railways scaling new height'
p650
g23
sS'indrussia joint military exercise indra indian defence review ht/www indiandefencereviecomedia/indrus similitary-exercisum4vkjvnetc.twitter'
p651
g3
sS'social media 101 pros ht/ papelangelarunsamuc 1306522382 stories today @indian_defence @hotchickdriverp'
p652
g3
sS'armoured division rt @indian_defence indian army raise armoured corps wb ht/ dlvi3yxygv #india'
p653
g3
sS'rt #proud @icansavelife #phailin natural calamities coms alwys come ahead help save lives salute #indian #defence'
p654
g3
sS'probably #lrmp @indian_defence cdevelopmenco-production defence pm agenda visit ht/ dlvi3vh0k2 #india "'
p655
g3
sS'@narendramodi vision strong indian defence export industry praiseworthy soon 2014 expect'
p656
g3
sS'developing indian defence ht/ thnw1asoa3b @thehindu'
p657
g3
sS'imperative defence preparedness rt @indian_defence aim parity china border infrastructure ht/ dlvi3rf7yj #india'
p658
g3
sS'indirussia naval ties prosper indian defence secretary r k mathur wrapped threday visit russ.. ht/ fmkyi9vs1j'
p659
g3
sS'@bharat_builder @mhbugti @indian_defence yes just second fetch news report'
p660
g3
sS'pakistan friends ht/ dlvi4k4gwz #pakistan'
p661
g3
sS'indian defence technology indigenisation need lip service ht/ lnkibiuq8sr'
p662
g3
sS'demographic invasion india north east indian defence review ht/www indiandefencerevieconews/demograph iinvasion-of-india-from-the-north-easunqerxifaym.twitter'
p663
g3
sS'indian defence stronge. students dream hig. indians proud themselv... ht/ fm2uhjs3gg8'
p664
g3
sS'non upa govt bring justice army @indian_defence'
p665
g3
sS'#innovateeurope #ec #eu #eci #24h ht/ papeldrhcuniversity 1376657067 stories today @crems_bham @indian_defence @innovstrategy'
p666
g3
sS'@indian_defence @military_indian blessed indian living india fight spew venom argue laugh wil'
p667
g3
sS'chinese vision sinpak strategic partnership indian defence review ht/www indiandefencereviecospotlights/the chinese-vision-of-sino-pak-strategic-partnership-ulq7jnxg6vi.twitter'
p668
g3
sS'#ff interesting continued @russiannavyblog @defenceassoc @indian_defence @olivercolvile @welshtoy @napoleonicwars @alessionaval'
p669
g3
sS'agni v successfully tested salute indian defence scientists ht/ economictimeindiatimes.conews/politics annatioindia-successfully-launches-nuclear-capable-agni-v-missile-for-second-time/articleshow/2259501cms'
p670
g3
sS'indian drdo revive kaveri engine development programme indian defence research development organi.. ht/ bil18sbx9g'
p671
g3
sS'rt @indian_defence ht/ dlvi3zdg20 #india'
p672
g3
sS'" @indian_defence taiwan defense ministry seek compensation suspect food oil ht/ dlvi4l3cll #china "'
p673
g3
sS'chinese coming indian defence review ht/www indiandefencerevieconews/chinesa rcominuh5v7mjmcge.twitter'
p674
g3
sS'new delhi president pranab mukherjee monday told group indian defence accounts service probationer officer.. ht/ fm10wtlfyl0'
p675
g3
sS'@indian_defence make compatible indian market indian navy showing army & airforce needs follo'
p676
g3
sS'indian defence holding'
p677
g3
sS'dynamics change pakistan ht/ dlvi4gsf6q #pakistan'
p678
g3
sS'@wrongdoc sending blood thirsty stone pelting jehadi mob instead indian defence forces @kenroth'
p679
g40
sS'taiwan displays new missile launch vehicle ht/ dlvi3pntvz #world'
p680
g3
sS'bdca self inflicted wound indian defence review ht/www indiandefencerevieconews/bdcanot heself-inflicted-wounumfnx0qryiy.twitter'
p681
g3
sS'@indian_defence actions speak louder word'
p682
g3
sS'infiltration charge indian defence minister ups ante new dehli amid .. ht/ bil16mntnp #pakistan #news'
p683
g3
sS'@adityarajkaul @rahulpandita differ d air strip man land indian defence forces landed deir plane'
p684
g3
sS'chhattisgarh polls voting phase begins amid high security ht/ dlvi4j4gyw #india'
p685
g3
sS'lighter note join indian defence force ht/ fmwap74ekw'
p686
g3
sS'sorry parking ... jai hind .. @indian_defence @military_indian @militaryporn @indians4israel pitwitter.coau26wprfz2'
p687
g3
sS'5 years counting indian defence establishment wake ht/ articletimesofindia.indiatimes.co20108-13/ind i33181951_1_drdrama-rao-committee-defence-research'
p688
g3
sS'" @indian_defence itbp create 35 new border posts china border ht/ dlvi3tyh4k #india fwd policy makin'
p689
g3
sS'egyptian soldiers killed ismailiya sinai attacks ht/ dlvi45r60w #world'
p690
g3
sS'indian defence minitser k. antoni blamed pakistan sending intruders pak stop encourage violence #ik'
p691
g3
sS'designates pakistan ganj madrassa terror organisation ht/ dlvi3qwwt6 #world'
p692
g3
sS'" @indian_defence time antcongress ht/ dlvi4bh8d0 #india "'
p693
g3
sS'india asked facebook data 4000 users year second ht/ dlvi3sfrtj #india'
p694
g3
sS'@indian_defence lets proxy war arabs persian'
p695
g3
sS'egypt ht/ dlvi3qx6sp #world'
p696
g3
sS'twain meet indian defence review ht/www indiandefencereviecoiever-the-tw aishould-meeui8ywnnfn1q.twitter'
p697
g3
sS'@indian_defence blog ssb interviews ht/ 67blogblogspot.i2013/09/ssin terviecandidates-experienchtml'
p698
g3
sS'@indian_defence deal taliban hve 2 b carefully traded fully trusted need alternate channel pashtun'
p699
g3
sS'formation <b>telanganab> state page 23 indian defence analysis logic goa ht/ gogfb/p59ah'
p700
g3
sS'andaman nicobar islands security challenge india indian defence review ht/www indiandefencerevieconews/andamaa nnicobar-islands-a-security-challenge-for-indiujcazslm-tq.twitter'
p701
g3
sS'@indian_defence contact hon chief army staf'
p702
g3
sS'know brave regiments #indianarmy ht/www indiandefenccoforums/indian arm3295know-brave-regiments-indian-armhtml#.ukehoywk95s.twitter @indian_defence'
p703
g3
sS'@indian_defence yr patriotism feeling fright support modi country sake prove yr dauntlessness'
p704
g3
sS'msm covering indian defence major security threat pak dont need spies army intel @ndtv'
p705
g3
sS'minutes added nepal attack indian defence block #indvnep #saff2013'
p706
g3
sS'300 young grassroots level athletes rub shoulders malaysian indian sports sukim fro.. ht/ fm2yvo9c9s4'
p707
g11
sS'r u hearing indian pm dm & sabka baap sonia rt @indian_defence china pakistan boost military ties ht/ dlvi3trjy9 #india'
p708
g3
sS'fdi defence dispelling myths indian defence review ht/www indiandefencerevieconews/fdin-de fencdispelling-the-mythuirfubb4wqu.twitter'
p709
g3
sS'theory possible @indian_defence russias stealth fighter outfly outshoot american jets ht/ dlvi3vdl4f #india "'
p710
g3
sS'question ceding indian territory china antony ht/ dlvi3wjkvj #india'
p711
g3
sS'uk crack online encryption ht/ dlvi3wk8pp #world'
p712
g3
sS'@labhsinghsidhu @indian_defence #pakistan media making fun india mars mission ht/ dlvi4kfth2 tell drones pak media'
p713
g3
sS'pakistan navy inducts used 2 at72 aircraft ht/ dlvi3pdktv #pakistan'
p714
g3
sS'arnab mondal weak link indian defence'
p715
g3
sS'northrop powers m8c scout uav ht/www indiandefenccoforums/s-eur op3307northrop-powers-up-mq-8c-fire-scout-uahtml#.ukg10zowdim.twitter @indian_defence'
p716
g3
sS'general katoch answers questions china bluntly indian defence review ht/www indiandefencerevieconews/chinsom questionun19h08mhni.twitter'
p717
g3
sS'automobile news ht/ dlvi3yjdlz #india'
p718
g3
sS'bjp support telangana ht/ dlvi4klh2b #india'
p719
g3
sS'@indian_defence @dptoshniwal1 whilst rich arab congregation funding terro'
p720
g3
sS'japan s. agree broaden military alliance ht/ dlvi44f5t1 #world'
p721
g3
sS'sovieborn entrepreneur preps cargo blimp maiden flight ht/ dlvi3yfdtb #world'
p722
g3
sS'chief minister akhilesh yadav hosts muzaffarnagar riots accused ht/www indiandefenccoforums/nationa politic33599-up-chief-minister-akhilesh-yadav-hosts-muzaffarnagar-riots-accusehtml#.ukrshggcqho.twitter @indian_defence'
p723
g3
sS'trojan horse rt @indian_defence debunk subramaniyam swami ht/ dlvi3q7d69 #india'
p724
g3
sS'@indian_defence ministry external affairs awak??'
p725
g3
sS'" @indian_defence soft drink promotions wrong ht/ dlvi40ntc2 @sonamgupta727 @vjhonsa @angrysurd @omygawwd @bubblgumchakram'
p726
g3
sS'wet dreams indian general nawaz sharif govt @indian_defence foil pakistan armys evil designs ht/ dlvi3x34rr #india "'
p727
g3
sS'" @indian_defence pak navy inducts new 22p guided missile frigate ht/ dlvi3vr0fx moily announce *austerity* measures 16t'
p728
g3
sS'qatar world cup construction leave 000 migrant workers ht/ dlvi43htsp #world'
p729
g3
sS'valuable commen.. suppor.and salute indian defence .. hit like support indian @youtube ht/ youtbyxjxtdnptva'
p730
g3
sS'indian defence force comatose stage year exhibits prowress republic day paradincite tibetan'
p731
g3
sS'indian defence minister make statement parliament today reported chinese military transgression border ladakh j&'
p732
g3
sS'geller did understand king indian defence mikhail botvinnik'
p733
g3
sS'care share ht/www indiandefenccoforums/indian arm3295know-brave-regiments-indian-armhtml#.ukjnbumn2we.twitter @indian_defence'
p734
g3
sS'#defence #minister #andhra pradesh indian defence news andhra chief minister warns congress .. ht/ hitfhithot.cen_in/defence minister'
p735
g3
sS'extract pink"s" article published indian defence review 208-2013 1 deep concern cont ht/ tgn_1rm51rs'
p736
g3
sS'say read sho.. ---> join indian defence forces pitwitter.coxjwyfuqee1'
p737
g3
sS'?? @indian_defence heathrow airport alert women armed bombs breast implants ht/ dlvi3q0k4c #world'
p738
g3
sS'" @indian_defence mugabe threatens foreigowned companies zimbabwe ht/ dlvi3s94qq #world 33yrs 85yr old rulin'
p739
g3
sS'support armed forces pakistan terrorists infiltrate indian defence minister a.. ht/ fm3mos2an1x'
p740
g3
sS'takeaway ausa ht/ dlvi4cdr7j #world'
p741
g3
sS'@mossie633 @indian_defence'
p742
g3
sS'land forces air defence #globalreach @indian_defence uk mod places new order thales starstreak missiles ht/ dlvi479rkm #world "'
p743
g3
sS'india gone nuclear safer #india  nuclear blunder ht/www indiandefenccoforums/militar history-strateg31439-indias-nuclear-blundehtml#.uh0jqzsv9aa.twitter @indian_defence'
p744
g3
sS'ones hv exterminated original local races r racist @indian_defence map wrld ht/ dlvi4kmgvn #world "'
p745
g3
sS'chinese coming indian defence review ht/www indiandefencerevieconews/chinesa rcominuh2xymjzw6k.twitter'
p746
g3
sS'happy independence day india @indiadefence @indian_defence @indian_tribune @pmoindia @fijiag @fijipm @fijirepublic #india'
p747
g3
sS'know brave regiments indian army ht/www indiandefenccoforums/indian arm3295know-brave-regiments-indian-armhtml#.uj_sc8xufty.twitter @indian_defence'
p748
g3
sS'@gitanjalijewel heartfelt thank indian defence forces comfort security #bhagyasaubhagya'
p749
g3
sS'kargil blood guts indian defence review ht/ m15emkhk'
p750
g3
sS'new iaf squadron logo lifts vin diesel film ht/ dlvi3vlkbw #india'
p751
g3
sS'opening nimzo indian defence e20 chess club live opening theory number 2776 position pictured .. ht/ fmoqmob68u'
p752
g3
sS'army chief bikram singh prepares military diplomacy mission ht/ dlvi3sgqwd #india'
p753
g3
sS'iran face biological mess indian defence review ht/ m1a1wzr2'
p754
g3
sS'indian defence ministry gave nod purchase 6 130j #superhercules deal worth rs 000 crore pitwitter.cotjynd8ksln'
p755
g3
sS'@indian_defence court ruling goes international observers saying like authoritarian days bac'
p756
g3
sS'skimpy clothing saudi arabia youre compound sure ht/ dlvi4l57gw #world'
p757
g3
sS'book extract siege attack taj fatal attraction ht/www indiandefenccoforums/social currenaffair35838-book-extract-siege-%97-attack-taj-fatal-attractiohtml#.unymuhlbsec.twitter @indian_defence'
p758
g3
sS'it just it wield @indian_defence putin topples obama forbes power list ht/ dlvi4dpckn #world "'
p759
g3
sS'poland limit foreign military missions ht/ dlvi3pzfxl #world'
p760
g3
sS'swiss committee approves gripen e procurement plan funds ht/ dlvi3st8jy #world'
p761
g3
sS'@mossie633 14 rt @indian_defence ht/ dlvi3vzhhg #world'
p762
g3
sS'indian defence news russia deliver warplanes india ht/ fm2g9b18dkk'
p763
g3
sS'quick progress gujarat plant ht/www indiandefenccoforums/economy infrastructur33075-quick-progress-gujarat-n-planhtml#.ukg7kre-tvy.twitter @indian_defence'
p764
g3
sS'time india practive indian defence review ht/www indiandefencerevieconews/ittime- foindia-to-be-pro-activuj8iyxtcy2u.twitter'
p765
g3
sS'foxy openings nimzo indian defence gm chris war.vhs $95 ht/ bil1bpol1o #books #book'
p766
g3
sS'india aircraft carrier vikramaditya indian defence review ht/www indiandefencereviecomedia/aircraft carrier-vikramaditya-uosgvpjwnmw.twitter'
p767
g3
sS'main kpi indian defence minster defend acts militaries pakistan china'
p768
g3
sS'indian defence forces start working used fighter planes nice'
p769
g3
sS'______________________________________ x_x @mikasingh @sameeratweeter @military_indian @narendramodi @indian_defence pitwitter.coidurrineno'
p770
g3
sS'possible version @indian_defence 15 better s. 18 indias mi29k chinese daily ht/ dlvi3yf2bm #china "'
p771
g3
sS'russia lost india ht/www indiandefenccoforums/strateg igeopolitical-issue31273-how-russia-lost-indihtml#.uhi0mg1mqnw.twitter @indian_defence'
p772
g3
sS'black cobra daily ht/ papelcorruptkeeray stories today @jonathanshainin @indian_defence @etribune'
p773
g3
sS'india pakistan begin talks power projects kashmir valley ht/ dlvi41j6cc #india'
p774
g3
sS'indian defence budget 20114 03 lakh crore combined health education budge03 lakh crore @thecaravanindia'
p775
g3
sS'khaps blood test & aginvesh urine test rt @indian_defence afraid asaram refuses blood urine tes'
p776
g3
sS'rescuers social media typhoon response ht/ owsj.co16pj83t tool @patrickmeier @kiranks @indian_defence'
p777
g3
sS'@indian_defence eye sight problem want join indian army want serve countri want die fr country wht shd d'
p778
g3
sS'india cites hurdles supplying arms afghanistan ht/ dlvi3sf8gs #india'
p779
g3
sS'rt @indian_defence mafialeaks spilling beans italian gangsters ht/ dlvi4gs0yw #world'
p780
g3
sS'congrats indian defence scientists agnv missile ht/ timesofindia.coindia/agnv-m issilsuccessfully-test-launched-from-wheeler-island-off-odisha-coasarticleshow/2259479cms'
p781
g3
sS'@dodo_bhongar @indian_defence @indians4israel read shafi sahab article impressed follow @sindhspeaks'
p782
g3
sS'symmetric assymetric counters ht/ dlvi476tc1 #world'
p783
g3
sS'indian defence looked surprisingly sloppy today #saff2013 #afgvind'
p784
g3
sS'baluchistan conflict news discussions page 82 ht/www indiandefenccoforums/pakista 3401baluchistan-conflict-news-discussions-8html#.uoffiyveglr.twitter @indian_defence'
p785
g3
sS'rt @indian_defence consequences north koreas eventual collapse ht/ dlvi40d3lx'
p786
g3
sS'rt" @zeenews edgp claims punjab politicians involved drug trade ht/ zeenewindia.conews/karnataka byeddyurappa-backs-narendra-modi-as-pm-kjp-bjp-merger-on-cards_87728html @indian_defence @swamy39 @yogrishiramdev'
p787
g3
sS'like chennai express like satirical ode indian defence minister ak anton..'
p788
g3
sS'unforgetable lens chief indian army gen jj singh present indian defence minister a.. ht/ fm2cehmxsxy'
p789
g3
sS'@indian_defence govt drags feet antsubmarine chopper deal ht/ dlvi44mpsb #india'
p790
g3
sS'#india #military #writing #army army whats gone wrong indian defence review ht/www indiandefencerevieconews/tharmy- whatgone-wronumjq0i2ytoc.twitter'
p791
g3
sS'posted 4 photos facebook album guest speaker atul pathak speaking new tech indian defence ht/ fm1txwbfgoj'
p792
g3
sS'global unrest spreads s. slashes military readiness ht/ dlvi3qfpgv #world'
p793
g3
sS'darpart @indian_defence sparton develop seabelaunched weapons ht/ dlvi3qx6qf'
p794
g3
sS'look ! india laments submarine indian defence minister ak antony describes huge explosion.. ht/ ol2z6lcb'
p795
g3
sS'know chinese goods fake rt @indian_defence match s. hornet chinas navy 15 flopping fish #china'
p796
g3
sS'@bcchristopher information articles way @indian_defence'
p797
g3
sS'rajput regiment @gen_vksingh @indian_defence know brave regiments indian army ht/ dlvi41hzk9 #india "'
p798
g3
sS'910 rt @indian_defence indian navy ships ins taba.. ht/ dlvi3w3gzz #india'
p799
g3
sS'britisfrench expeditionary air wing ht/ dlvi48y3cr #world'
p800
g3
sS'attack syria competitive shisunni gas pipelines politics indian defence review ht/www indiandefencerevieconews/attacon syria-competitive-shia-sunni-gas-pipelines-politicuisru_iusnk.twitter'
p801
g3
sS'#globalinterests @indian_defence pakistan ready start sale j17 thunder planes year ht/ dlvi4c0hkm #pakistan "'
p802
g3
sS'ruing ceeding sead usn @indian_defence usaf improves ew training 16 pilots ht/ dlvi3sqt55 #world "'
p803
g3
sS'indian defence minister ak antony describes huge explosions indian submarine berthed mumbai shocking tragedy'
p804
g3
sS'australias defence forces gear south china sea says expert ht/ dlvi47ltbv #world'
p805
g3
sS'@indian_defence learned possibility gen v k singh inducted party rall'
p806
g3
sS'pakistani high commissioner said indian defence minster leveled baseless allegations pak army acceptable'
p807
g3
sS'rt @indian_defence rupee falls 645 new record low ht/ dlvi3qlxcd #india "'
p808
g3
sS'great start #indianrailways pitwitter.corrm8okei1a'
p809
g23
sS'bjp n modi remember indian defence budget 1966 rs 600 crore 5 lakh cror400% enhanced 5 decade'
p810
g3
sS'indian defence ins sindhurakshak ..a salute'
p811
g3
sS'@indian_defence time come indian leaders act tough & engage pakistan unless hand terrorists wanted indi'
p812
g3
sS'@indian_defence real shakedown previous policy rbi economy needs macro changes reviva'
p813
g3
sS'mt @indian_defence truth war syria qatari natural gas pipeline ht/ dlvi3xdn1l #world @maggiepriceless'
p814
g3
sS'nepal armies jointly train disaster relief ht/www indiandefenccoforums/s-eur op3485nepal-us-armies-jointly-train-disaster-reliehtml#.umhtgkmh7wy.twitter @indian_defence'
p815
g3
sS'maoists prism victims general baljit singh indian defence review ht/www indiandefencereviecospotlights/mao istthrough-the-prism-of-their-victimuoowu3nenro.twitter'
p816
g3
sS'anna hazare writes arvind kejriwal questions source aap funds ht/ dlvi4lw4rs #india'
p817
g3
sS'goi playing foreign hand rt @indian_defence govt failed arrest rupee free fall ht/ dlvi3qq36s'
p818
g3
sS'iok indian kashmir rt @indian_defence singh condemns iok attack says peace talks derailed ht/ bil14uoyo8 #india'
p819
g3
sS'bureaucracy strangles indian defence modernization efforts ht/www defensenewcoarticle/201310 2showscout04/310200011/bureaucracstrangles-indian-modernization-effortodyssenav%7chead'
p820
g3
sS'@indian_defence reporting atrocities muslims upward trend days just proves prevailing hypocrisy medi'
p821
g3
sS'new delhi mice roar indian defence review ht/www indiandefencerevieconews/nedelhi mice-cant-roaug3mr3au41e.twitter oh #india speechless @rwac48'
p822
g3
sS'irgc rejects report maximum range iranian missiles ht/ dlvi47lt8y #world'
p823
g3
sS'@indian_defence 3 day attack help face saving proposition obama need political plan plac'
p824
g3
sS'woulshould join indian defence kind incidents rise ht/ bil19br9vt @prasanto @suchetadalal'
p825
g3
sS'kim jonun egirlfriend firing ht/ dlvi3tmr8t #china'
p826
g3
sS'pratt wins $69m 135 lot 8 lonlead items ht/ dlvi3st8kt #world'
p827
g3
sS'#chinese aggressiveness need appropriate response indian defence review ht/www indiandefencerevieconews/chinesa ggressivenesneed-for-appropriate-response'
p828
g3
sS'pakistan navy inducts used 2 at72 aircraft ht/www indiandefenccoforums/pakista 3080pakistan-navy-inducts-used-2-atr-72-aircrafhtml#.ug2rios_xmu.twitter @indian_defence'
p829
g3
sS'"in absence orderfind kill erwin rommewhat man great @indian_defence @kiranks pitwitter.cofq3a8fnfi8'
p830
g3
sS'new delhi mice roar indian defence review ht/www indiandefencerevieconews/nedelhi mice-cant-roaugzdzs2gfqw.twitter'
p831
g3
sS'indian university worlds 200 ranks ht/ dlvi3xqk2d #india'
p832
g3
sS'tarmak007 - bold blog indian defence ins vikramaditya commissioned ht/ fm270hv8tob'
p833
g3
sS'best time visit thailand rt @indian_defence thailand economy falls recession ht/ dlvi3qrjlk #india'
p834
g3
sS'1962 nehruvian blunder indian defence review ht/www indiandefencerevieconews/196the- nehruviablunder superb rea'
p835
g3
sS'secre.. @indian_defence saudis offer russia secret oil deal drops syria ht/ dlvi3swpkv #world "'
p836
g3
sS'ha ha ha ha ha haha ha ha ha ha look indian defence ministeindians expecting fight chinpakistan pitwitter.cocwi3hr5xqf'
p837
g3
sS'indian defence minister ak anthony stated india make compromise security border'
p838
g3
sS'@indian_defence cross examining doctor what furnitur,, stray dog,,'
p839
g3
sS'@indian_defence @military_indian u consider ur policies & recognise independence movement #sindh & #balouchistan'
p840
g3
sS'chugging ahead indian railways powers ahead track #energyefficiency ht/ bilrailwaysundp pitwitter.co7yeyzdwwc7'
p841
g23
sS'#iaf landed #c 130jhercules agressive meaasge given china #indiandefence'
p842
g3
sS'america police looking like military ht/ dlvi4fhjqt #world'
p843
g3
sS'" @indian_defence bangladesh begins import electricity india ht/ dlvi43h8zf #world powe?'
p844
g3
sS'attack helicopters india indian defence review ht/www indiandefencerevieconews/attache licoptershould-india-have-theuoqjcqwudga.twitter'
p845
g3
sS'@indian_defence let hope systems successfully tested important pad astra #india'
p846
g3
sS'gifting away indian territory rise bandicoots indian defence review ht/www indiandefencerevieconews/12598gift inaway-of-indian-territory-the-rise-of-the-bandicootujmjbh23hce.twitter awful true'
p847
g3
sS'rt @indian_defence pakistan sending reinforcements international border report ht/www indiandefenccoforums/strateg igeopolitical-issue35256-pakistan-sending-reinforcements-international-border-reporhtmutm_sourcdlvr.it&utm_medium=twitter cc @pmoindia #india'
p848
g3
sS'anybody bothered defending india titanic mispending lakhs crores indian defence forc.. ht/ fm6sswadtj7'
p849
g3
sS'@indian_defence pape'
p850
g3
sS'boeing airbus clinch deals dubai $100 bn ht/ dlvi4l57gx #world'
p851
g3
sS'bbc world india laments submarine indian defence minister ak antony describes huge explosions an.. ht/ ol2z6qnz'
p852
g3
sS'@indian_defence china preparing future war india caught pants attitude policy persist'
p853
g3
sS'indian defence minister clarify chinese #incursion ht/www phayucom ht/www phayuconews/article.a spi33953&t=1'
p854
g3
sS'pathetic rarely highlighted corruption affected preparedness indian defence force'
p855
g3
sS'@thebobbydeoll wil shame indian sports minister identify morons javelin throw rio olympics'
p856
g11
sS'claude arpi  read india china border dispute indian defence review ht/www indiandefencerevieconews/thadvan cinborders-of-the-chinese-empirujmbwc2qta4.twitter'
p857
g3
sS'bharat verma chinkin-armour security indian defence review ht/www indiandefencerevieconews/bharave rmon-chinks-in-armour-in-securitug85v2zxab0.twitter'
p858
g3
sS'returned greater sense respect gratitude indian defence force.'
p859
g3
sS'rs 3 crore going monkeys delhi ht/ dlvi47scpq #india'
p860
g3
sS'@gulpanag @indian_defence surprisepeople like v k singh rank opportunisthis actions contrary sai'
p861
g3
sS'cygnus en route sunday rendezvous station ht/ dlvi40dhgr #world'
p862
g3
sS'lol wc 2011 win going espn india 1 moment indian sports histor'
p863
g11
sS'indonesia deepen defense ties amid exercises arms deals ht/ dlvi43lf0j #world'
p864
g3
sS'eurockot says usable missiles operate 2020 ht/ dlvi42ksks #world'
p865
g3
sS'time bomb ticking @indian_defence china massive infrastructure build bhutan ht/ dlvi45zzmm #india "'
p866
g3
sS'india shining daily ht/ papelindiashining_ stories today @indian_defence @vishalgondal @shilparathnam'
p867
g3
sS'#telangana formation telangana state page 38 indian defence analysis ht/ ol2aegvj'
p868
g3
sS'case captain saurabh kalia . meaningless indian defence ministry washes hands sayin.. ht/ fm1xttkrh2s'
p869
g3
sS'indian defence minister alleges pakistan tension loc ht/www arynewten/index.php/p akistanational/item/823indian-defence-minister-alleges-pakistan-of-tension-at-loc'
p870
g3
sS'@indian_defence @military_indian u silent #hrviolationinsindh concern #pakistan extremist forces'
p871
g3
sS'@indian_defence looks like israeli army chief reading cold start'
p872
g3
sS'wtf rt @indian_defence nepal black outs screening tv lord buddha ht/ dlvi3wwhcr #india'
p873
g3
sS'king indian defence today pitwitter.co0sasql0cx7'
p874
g3
sS'@indian_defence ltte people sri lanka deal state sponsored terroris'
p875
g3
sS'church looks like giant penis google earth ht/ dlvi4dgccc #india'
p876
g3
sS'@indian_defence untold saga killings ina men pows land ht/ issucoswamijyoti/doc ina_pow_massacre_of_1945'
p877
g3
sS'developing indian defence drdo chief talks sense want reinvent wheel ht/ thnw14x53jp @thehindu'
p878
g3
sS'infoheaders journal #defense ht/ papelinfoheaders/13 69247770 stories today @indian_defence @hidayj @thestudyofwar'
p879
g3
sS'new #android #app indian defence ht/ bilgcgedj'
p880
g3
sS'indian daily ht/ papelbrijesh_h/1315 929455 stories today @landmarkstores @indian_defence @digitindia'
p881
g3
sS'@indian_defence ending processio'
p882
g3
sS'new post probationers indian defence accounts service president ht/ gunnugolcoprobationero indian-defence-accounts-service-call-on-president'
p883
g3
sS'surprise #sweden plans #defense spending boost ht/www indiandefenccoforums/s-eur op3474sweden-plans-defense-spending-booshtml#.umaf-xywidw.twitter @indian_defence'
p884
g3
sS'biggest economic sector outside banking @indian_defence uk minister talks arms trade japan korea ht/ dlvi3qbjd7 #world "'
p885
g3
sS'brahmos cement indias place missile powerhouse ht/ dlvi40c7h3 #india'
p886
g3
sS'chinese aggressiveness need appropriate response indian defence review ht/ m15y13br'
p887
g3
sS'gsa7 india satellite dedicated military successfully launched @indian_defence @military_indian @indians4israel'
p888
g3
sS'@berges @mosiqi flight probbly islamabad bring date recent findings indian defence'
p889
g3
sS'#realpolitik @indian_defence turkey pushes 129 gunships pakistan scupper deal ht/ dlvi43djfb #pakistan "'
p890
g3
sS'rt @indian_defence iaf miffed hal failing pace changing times ht/ dlvi4gnvyc #india'
p891
g3
sS'#army #indian #defence #studies #blog 1962 #india #china #war battle bomdla learning #military history ht/ karvediablogspot.i2013/09/196i ndichina-war-battle-of-bomdi-lhtml'
p892
g3
sS'indian tanker allowed leave 26 days detention ht/ dlvi3wc5hv #world'
p893
g3
sS'pakistan continue steps peace says nawaz ht/ dlvi46x7pc #pakistan'
p894
g3
sS'added video @youtube playlist ht/ youtbt7oarvyhg7a queens indian defence e15 veselin topalov vs levon aronian'
p895
g3
sS'rockstar indian defence .. best caption india produce ou.. ht/ fm6zole5id6'
p896
g3
sS'indian defence ministry rejects gen v k singh plea secret unit ht/ bili3q5ef #kashmir'
p897
g3
sS'unconventional warfare baby indian defence review ht/www indiandefencerevieconews/unconvent ionawarfare-whos-babuiyygnov1gw.twitter'
p898
g3
sS'@bharat_builder @mhbugti @indian_defence american drones killed indian drone'
p899
g3
sS'man beheaded 5 daughters hanged kasab executioner tomorrow ht/www indiandefenccoforums/social currenaffair30325-man-who-beheaded-5-daughters-hanged-kasabs-executioner-tomorrohtml#.ulzufcbxjqu.twitter @indian_defence'
p900
g3
sS'soldiers nice pakistanis asks common man indian defence review ht/www indiandefencerevieconews/whshoul our-soldiers-be-nice-to-pakistanis-asks-a-common-mauhs7ndnsk6w.twitter'
p901
g3
sS'love author plainspeak gifting away indian territory rise bandicoots indian defence review ht/www indiandefencerevieconews/12598gift inaway-of-indian-territory-the-rise-of-the-bandicoots'
p902
g3
sS'#globalinterests #fareast #armsrace @indian_defence china demonstrates version global hawk drone ht/ dlvi4hdqjs #china "'
p903
g3
sS'boost indias defence capabilities singh ht/ dlvi3ssht3 #india'
p904
g3
sS'uindia defence trade sizing competition indian defence review ht/www indiandefencerevieconews/uindia- defenctrade-sizing-up-the-competitiounkxhgtw2ow.twitter'
p905
g3
sS'indian railways says changes ticketing rules july 1 ht/ checktrainpnrstatucoblog/indiara ilwaysays-no-changes-ticketing-rules-july-1 @irctcpnrenquiry'
p906
g23
sS'super puma helicopter crashes sea scotland ht/ dlvi3rvzsq #world'
p907
g3
sS'gregster007 daily ht/ papelgregster007/13 15631965 stories today @indian_defence @prembaweja @kateshawonline'
p908
g3
sS'understanding nawaz sharif indian defence review ht/www indiandefencereviecospotlights/und erstandinnawaz-sharium5i3wopgra.twitter'
p909
g3
sS'indian companies transparent brics corruption watchdog ht/ dlvi48xpkz #india'
p910
g3
sS'pakistan splinters indian defence review ht/www indiandefencerevieconews/ipakist asplinterunena-n8n1w.twitter'
p911
g3
sS'@oldkrish @indian_defence years obama praising indian universities ploy popularize foreign ht/www bigtamashco2010/03/foreig universities-being-allowed-thtml'
p912
g3
sS'@indian_defence everybody knows @brb_laaldhwoj chinese d body nepal'
p913
g3
sS'@indian_defence netas wud nvr let happe u think permit peaceful processions fearing communal tension'
p914
g3
sS'developina-more- indiadefence avinash chander drdo chief new drdo chief optimistic progres.. ht/ fm2u4slqxsg'
p915
g3
sS'read nehru wanted scuttle sardar hyderabad plans ht/www indiandefenccoforums/militar history-strateg22112-nehru-wanted-scuttle-sardars-hyderabad-planhtml#.uk2v56zlt0c.twitter @indian_defence'
p916
g3
sS'nepal namaste china indian defence review ht/www indiandefencerevieconepanamaste- chinui8yy1bouim.twitter'
p917
g3
sS'" @indian_defence govt measures hopeless optimistic india jim rogers ht/ dlvi3rbx80 #india @swamy39'
p918
g3
sS'bald geopolitical insight #myanmar indian defence review ht/www indiandefencerevieconews/insighi ntmyanma0/ #arms #insurgency #narcoterrorism wo'
p919
g3
sS'italys boeing k767 tanker conducts collective aerial refueling certification ht/ dlvi3x1y5p #world'
p920
g3
sS'inside story samba attack indian defence review ht/www indiandefencerevieconews/thinsid story-of-samba-attaculvv-9epztg.twitter'
p921
g3
sS'great thing indian defence ht/ ecotmkuxdby'
p922
g3
sS'chinas asian age depends spliting india indian defence review ht/www indiandefencerevieconews/chinaas iaage-depends-on-spliting-indiun8jxr0klns.twitter'
p923
g3
sS'aqaeda set burn ganges post 2014 indian defence review ht/www indiandefencerevieconews/aqaeda- seto-burn-the-ganga-post-201uljsf80toj8.twitter'
p924
g3
sS'sartaj azizs visit stupidity compounded indian defence review ht/www indiandefencereviecospotlights/sar taazizs-visit-stupidity-compounded'
p925
g3
sS'ins vikramaditya completes trials russia sources @military_indian @indian_defence jai ....................'
p926
g3
sS'indian defence minister ak antony joined pm condemning dastardly attack terrorists indian security posts jamm'
p927
g3
sS'congress lackeys set demolish indian defence forces allow succeed jai hin'
p928
g3
sS'@india_policy today defence offset $10 billion biz indian defence aeronautical industry enormous opportunity#faujiwithmodi'
p929
g3
sS'look pic understand ppl indian railways touches slight improvement snowball effects ht/ irfcorfaq/map/ir_net work_schematic_map_largpng'
p930
g23
sS'indian defence news kashmir assembly summon army chief ht/www bharatdefencekavacconews/37902_kas hmiassembly-to-summon-former-army-chiehtml#.ulwqyr9lxh0.twitter'
p931
g3
sS'bania india attack pakistan says hafiz saeed ht/ dlvi3sr8rh #pakistan'
p932
g3
sS'change infantry combat bit @indian_defence plasmbased weapons ht/ dlvi3pphth #world "'
p933
g3
sS'disarming syrias chemical hydra mission impossible ht/ dlvi44f5sh #world'
p934
g3
sS'iowa grants gun rights blind ht/ dlvi3xgqbv #world'
p935
g3
sS'dangers india indian defence review ht/www indiandefencerevieconews/ththree dangers-to-indiukeytgb9cxy.twitter'
p936
g3
sS'rt @indian_defence 160 militants 67 civilians killed #drone strikes far pakistan ht/ dlvi4dzkrm #pakistan "'
p937
g3
sS'@indian_defence @gen_vksingh dear sir dont follow retweet indian defence site owned pakistan'
p938
g3
sS'kishtwar riots beginning ethnic cleansing indian defence review ht/www indiandefencerevieconews/kishtwar riotthe-beginning-of-ethnic-cleansinuib81zu-iss.twitter'
p939
g3
sS'preparing 2014 @indian_defence futures wargame prepares army 2030 ht/ dlvi424vtz #world "'
p940
g3
sS'higtech naval base counter chinese expanding navys indian defence review ht/www indiandefencerevieconews/higtech naval-base-to-counter-chinese-expanding-navyum5zdpqoaa0.twitter'
p941
g3
sS'indian defence sources slam auditor report #aw101 deal talks #finmeccanica #agustawestland ht/ lnkixyeubg'
p942
g3
sS'venezuela food shortages explain rich country ht/ dlvi42q6rq #world'
p943
g3
sS'kaleem terrorizing indian defence cross blocked ensuing corner capitalize.. ht/ fm6tutufvq5'
p944
g3
sS'lol iaf wtf @indian_defence new iaf squadron logo lifts vin diesel film ht/ dlvi3vlkbw #india'
p945
g3
sS'@thinking_major @indian_defence it current risk nations worrying sudden deployment'
p946
g3
sS'nokia says india favourable report ht/ dlvi3sd1ts #india'
p947
g3
sS'kargil keran sector indian defence review ht/ m16sbig6'
p948
g3
sS'rbi partially relaxes overseas investment curbs intervenes support rupee ht/ dlvi3vjwy4 #india'
p949
g3
sS'pakistani doctors flee sindh seek safety ahmedabad ht/ dlvi47scnx #india'
p950
g3
sS'praful patel know past performance record indian defence psus saying read ht/www chhinditblogspot.i2013/10/8lif of-kirans-is-over-ijt-urgentlhtml'
p951
g3
sS'@vidyut condition indian defence minister described killing 5 soldiers #loc rt @ap .. ht/ tmm18zyed'
p952
g3
sS'korea slip indian defence enter d deflect wide mark #asiacup13 15 min left 1st hal'
p953
g3
sS'isro indian defence cheer having moved closer possessing icbms effective military deterrent jai hind'
p954
g3
sS'@indian_defence let relation cismoa'
p955
g3
sS'coming soon big brother watch ngos civil society groups worried @manoharparrikar .. ht/ idrorc/'
p956
g40
sS'@indian_defence planning alliance pakistan china anti indian ac'
p957
g3
sS'indian defence news isi answerable parliament gilani ht/ fm2xxrcwjpv'
p958
g3
sS'nia stopping terrorists tracks ht/ dlvi3xbgb5 #india'
p959
g3
sS'chinese incursion need introspect indian defence review ht/www indiandefencerevieconews/thchine sincursion-need-to-introspecunep_6ojdki.twitter'
p960
g3
sS'd rt @indian_defence warship goa strategies & fun ht/ dlvi43rg0g'
p961
g3
sS'afghan taliban say pakistan keeping mullah baradar jail ht/ dlvi46c7kz #world'
p962
g3
sS'iaf director general seeks rethink fdi policy talking opportunities indian defence sect.. ht/ bil1b7g7uy'
p963
g3
sS'dircm laser jammer action ht/ dlvi3ygw57 #india'
p964
g3
sS'" @indian_defence coping china strategy ht/ dlvi3p3qw5 #india @srisrispeaks'
p965
g3
sS'"indian #airforce wings indian defence 00pm ae details her.. ht/ fm2qtvltje5'
p966
g3
sS'@indian_defence y @indiandiplomacy @singhrpn @pmoindia  robust policy despite d special relationship @brb_laaldhwoj stirs trbl'
p967
g3
sS'antnuke activists trigger panic fb kudankulam ht/ dlvi4fggpp #india'
p968
g3
sS'dod cuts navy programs watch closely ht/ dlvi3zdn8y #world'
p969
g3
sS'bradley manning sentenced 35 years wikileaks case ht/ dlvi3r6nbz #world'
p970
g3
sS'list indian prisoners war pow pakistan indian defence review ht/www indiandefencereviecointerviews/lis of-indian-prisoners-of-war-pow-in-pakistaumvbjtcl1dc.twitter'
p971
g3
sS'j&k theatre war indian defence review ht/www indiandefencerevieconews/jtheatr of-the-next-wav4c7hcrckei.twitter'
p972
g40
sS'navy says sabotage didnt sink sindhurakshak ht/ dlvi40c7jf #india'
p973
g3
sS'@indian_defence @dhankar_bhavesh obviously try extract pound flesh asking contracts nuclear plants'
p974
g3
sS'does indian railways allow eunuchs beggars roam freely beg trains htt/www quorcowhdoes-india railways-allow-eunuchs-and-beggars-to-roam-freely-and-beg-in-trainanswer/bholanath-singshar6551b000'
p975
g23
sS'wordpress template indian defence news website idrw ht/ dlvi3xrfvw #creativejobs #jobs'
p976
g3
sS'south korea launches 4th 80ton submarine ht/ dlvi3pntw8 #world'
p977
g3
sS'indian defence industry issues selreliance institute defence studies analyses ht/ idsimonograph/indi andefenceindustry'
p978
g3
sS'@masala_chaas @kankarej @indian_defence original pappu pappu ka baap science humanity unknown hi'
p979
g3
sS'lost opportunities operation parakram indian defence review page 2 ht/www indiandefencereviecospotlights/los opportunities-in-operation-parakraulqwdifjj_y.twitter'
p980
g3
sS'99 1 ! indian railways train videos mega compilation htt/ youtb1r28mdrnltq @youtube @sureshpprabhu @railminindia @pmoindia'
p981
g23
sS'@indian_defence mms goes gives tips closing parliament #lol hail power indian.'
p982
g3
sS'german footballer turned islamist killed syria ht/ dlvi4lwc2f #world'
p983
g3
sS'@indian_defence report brazil pakistan collaborating closely industrial secto'
p984
g3
sS'indian defence products attract global attention seoul adex 2013 ht/www snsanalyticcowu58y5'
p985
g3
sS'according indian defence study 2005 pakistan seize exist exactly 5 years welsuck bra'
p986
g3
sS'whined away shirking responsibility @indian_defence cm blasted centre day ht/ dlvi3q99nm #india'
p987
g3
sS'#olympics medals medals it gratifying ribound indian sports persons dopfree pitwitter.confkduu2ez6'
p988
g11
sS'@indian_defence issue combat forces available app store pitwitter.cocpi513tp0p'
p989
g3
sS'border defence cooperation agreement bdca india china indian defence review ht/www indiandefencerevieconews/bordede fenccooperation-agreement-bdca-between-india-and-chinumf8xv6lvmy.twitter'
p990
g3
sS'latest appointments indian defence sector 1 supreme commander armed forces ~ shri pranab mukherjee .. ht/ fmmqntsihy'
p991
g3
sS'@indian_defence india wants major player rely solely russi'
p992
g3
sS'@indian_defence kargil 1999 2002 article filled age old data scenarios thats long change'
p993
g3
sS'troops chad killed mali tessalit town ht/ dlvi4bgblb #world'
p994
g3
sS'@hashirpk4 kargil war raged bjp led nda sanghi congiour brave hearts @indian_defence hav saviours @gsurya'
p995
g3
sS'indian soldiers negligence pak attack indian defence department 10tv ht/www 10tinews/indiaso ldiernegligence-behind-pak-attack-indian-defence-department @addthis'
p996
g3
sS'russia worry american iroads indian defence market ht/ indrui30693'
p997
g3
sS'#ashtasheel > rt @indian_defence pm suggests 8 areas india china cooperate ht/ dlvi4bxq2y #india'
p998
g3
sS'check new accidenprevention disablefriendly facilities indian railways ht/www thebetterindico61395/trnetr boc-railways'
p999
g23
sS'pakistani doctor got drunk away family eid sexuall ht/ dlvi4gnys7 #pakistan'
p1000
g3
sS'indian defence consists including navy tanks 555 [2012] armored fighting vehicles 293 [2012.. ht/ fm6wt8wwwkg'
p1001
g3
sS'rebuff blackmail sri lanka indian defence review ht/www indiandefencereviecospotlights/reb ufthe-blackmail-over-sri-lanka'
p1002
g3
sS'iranian 14 tomcat fighter jets modern splinter color scheme ht/www indiandefenccoforums/worla ffair3186iranian-f-14-tomcat-fighter-jets-get-modern-%93splinter%94-color-schemhtml#.uigk4hdbtoe.twitter @indian_defence cg'
p1003
g3
sS'@investorspride @manjunathkumarr @chintanvedant @vibhask1 @nanditathhakur does appear soldier indian defence force'
p1004
g3
sS'@indian_defence rafale deal critical air chief ht/ dlvi45g1n8 #india a101 vip mentioned'
p1005
g3
sS'manmohan modi share dais gandhinagar inaugurate sardar vallabhbhai patel ht/ dlvi4d8ryz #india'
p1006
g3
sS'm17 helicopter production kazan helicopter plant ht/ dlvi3xg7rv #india'
p1007
g3
sS'baltic nato states question russibelarus war games ht/ dlvi40y0jj #world'
p1008
g3
sS'time yrs late budget rt @ddnewslive indian defence minister arrives russia #insvikramaditya handover'
p1009
g3
sS'indian defence ministry officials convicted graft ht/ bilheo1dk #india'
p1010
g3
sS'1962 nehruvian blunder indian defence review ht/www indiandefencerevieconews/196the- nehruviablundeuolc_neyu0k.twitter'
p1011
g3
sS'lack #strategicthinking reserve & later museum @indian_defence #hmsillustrious ht/ dlvi488q0l #world "'
p1012
g3
sS'indian defence minister say violation pak army terrorists ht/www ndtcoarticle/india/ morceasefire-violation-by-pakistani-troops-12-in-a-week-now-406825'
p1013
g3
sS'nepal namaste china indian defence review ht/ m1da8mob'
p1014
g3
sS'@indian_defence india exporting electricity muslim countries pakistan bangladesh hindus killed tortured refugee'
p1015
g3
sS'gangs asian men grooming underage muslim girls plying drink ht/www indiandefenccoforums/worla ffair3221gangs-asian-men-grooming-underage-muslim-girls-too-plying-them-drinhtml#.ui8ljz2_2eo.twitter @indian_defence'
p1016
g3
sS'tarmak007 - bold blog indian defence air marshal arup raha cas ht/ fmlnvate37'
p1017
g3
sS'navytimes @indian_defence 4 destroyers positioned near syria ht/ dlvi3snyrl'
p1018
g3
sS'indian dac approves acquisition additional 130j aircraft indian defence acquisition council da.. ht/ bil16drxqe'
p1019
g3
sS'n8ivwarrior sharepoint cloudpoint ht/ papeln8ivwarrior/12 93636067 stories today @it9_mike @rpetrowsky @indian_defence'
p1020
g3
sS'" @indian_defence chemical weapons disposal cost $1 billion year bashar assad ht/ dlvi405xby #world "'
p1021
g3
sS'" @indian_defence taliban warns pakistan govt execute militants ht/ dlvi3p2xgm #pakistan @srisrispeaks'
p1022
g3
sS'@indian_defence cats highly intelligent tragic iranians launch space use politician instea'
p1023
g3
sS'aqaeda set burn ganga post 2014 indian defence review ht/www indiandefencerevieconews/aqaeda- seto-burn-the-ganga-post-201uljspg4q5h8.twitter'
p1024
g3
sS'@defencepk minister smith meets indian defence minister antony perth ht/ adfmedismugmug.cophoto/mindefs2 01302329817707_v3phdb2556279041&k=lfr3jms luis meet pakistanis neck'
p1025
g3
sS'pathetic @indian_defence indian university worlds 200 ranks ht/ dlvi3xqk2d #india'
p1026
g3
sS'pakistan indias neighbor indian defence review ht/www indiandefencerevieconews/pakistan musnot-be-indias-neighbouhspuinxhh8.twitter'
p1027
g3
sS'ties india grow israel says supply arms pakistan ht/www indiandefenccoforums/strateg igeopolitical-issue32557-ties-india-grow-israel-again-says-wont-supply-arms-pakistahtml#.uja7uvtk7hs.twitter @indian_defence'
p1028
g3
sS'set bag $5bn defence deals having bagged indian defence contracts worth $8 billion .. ht/ bil1bajg0h #india'
p1029
g3
sS'#world news india goes ahead massive arms shopping new delhi indian defence ministry friday cleared .. ht/ ol2zttnp'
p1030
g3
sS'wow israel working saudi arabia iran strike plan ht/www indiandefenccoforums/worla ffair3649wow-israel-working-saudi-arabia-iran-strike-plahtml#.uojxvxxs2ae.twitter @indian_defence'
p1031
g3
sS'liked @youtube video ht/ youtb40bb_cekhta bharat verma indian defence foreign policy 2'
p1032
g3
sS'hafiz saeed challenges india prove terrorist ht/ dlvi3pqfsn #pakistan'
p1033
g3
sS'india chandrayaan 2 ht/ dlvi3pp6wk #india'
p1034
g3
sS'added video @youtube playlist ht/ youtbcc4js2bwa kings indian defence magnus carlsen vs judit polgar rapid game 2012'
p1035
g3
sS'nepals crimson deluge complete indian defence review ht/www indiandefencerevieconepalcrimson deluge-completuheqt9sg8xk.twitter'
p1036
g3
sS'surprised indian defence minister saywe investigate attack indian army uniform indians pakis'
p1037
g3
sS'dwn evn wit antbhood folks @indian_defence egypt court orders hosni mubarak freed ht/ dlvi3r6ncw #world'
p1038
g3
sS'mbdas sea ceptor air defence selected royal new zealand navys anzac ht/ dlvi45xd2m #world'
p1039
g3
sS'united states attack syria implications israel ht/ dlvi3vlkfk #world'
p1040
g3
sS'rt @cenkuygur se!! @indian_defence turkeys online islamic sex shop opens ht/ dlvi49v6bs #world @theyoungturks'
p1041
g3
sS'kashmir spotlight response indian defence review ht/www indiandefencereviecospotlights/kas hmiunder-spotlight-and-our-responsuhjoeq9c4fi.twitter'
p1042
g3
sS'outgoing indian defence attach meets secretary ht/www vivalankconews/page.jsp articlei555655'
p1043
g3
sS'@indian_defence u like rahul gandhi pm include mo......u r defence u feel fright'
p1044
g3
sS'mole hilmountain @indian_defence unreliable british officers left meetings syria ht/ dlvi3vmnmr #world'
p1045
g3
sS'rt @indian_defence smaller budget scaled military hagel csis ht/ dlvi4gn6tk #world'
p1046
g3
sS'boy carrying replica gun shot dead california police ht/ dlvi4bgbjj #world'
p1047
g3
sS'hidden secrets nehrgandhi dynast- read indians ht/www indiandefenccoforums/nationa politic36164-hidden-secrets-nehru-gandhi-dynasty-must-read-all-indianhtml#.uopznboo5oo.twitter @indian_defence'
p1048
g3
sS'@smithbend hoax probably tweet rted fake account @indian_defence'
p1049
g3
sS'national security nation expect pm stop swimming slush indian defence review ht/www indiandefencerevieconews/national securitcan-the-nation-expect-pm-to-stop-swimming-in-slusuinae_nfgae.twitter'
p1050
g3
sS'smart defence keeping nato fit future ht/ dlvi3q8bw9 #world'
p1051
g3
sS'evolution indian military concepts indian defence review ht/www indiandefencereviecospotlights/evo lutioof-indian-military-conceptuiimtoiwn9e.twitter'
p1052
g3
sS'tejas r 73 misslie firing aid dash hud photo indian defence ht/ fm1kg4fyspi'
p1053
g3
sS'livefist indian defence minister statement ins sindhurakshak tragedy ht/ bil15znhmx'
p1054
g3
sS'whoa rt @indian_defence sefacing mumbai duplex goes rs 35sq ft ht/ dlvi41bb8q #india'
p1055
g3
sS'@legendskyfall @military_indian @indian_defence provided additional security'
p1056
g3
sS'queen indian defence boris spassky vs mikhail tal ht/ youtbj2zqpf3zmxk'
p1057
g3
sS'> @indian_defence russias emergencies ministrys evacuation plane just quick stop syria ht/ dlvi3sqcsf #world'
p1058
g3
sS'british royals meet war veterans indian defence staff video times india ht/ timesofindiindiatimes.covideos/news/br itisroyals-meet-war-veterans-and-indian-defence-stafvideoshow/2556346cms'
p1059
g3
sS'@indian_defence obama reminded indian leaders persistent foreign hand bad 70s 80'
p1060
g3
sS'govt allow indian defence personnel purchase land posh localities kashmi'
p1061
g3
sS'quay concerns delay launch navy submarine ht/ dlvi3vzxzw #world'
p1062
g3
sS'@ltgen_sampathk tacticjust wait n watch indian defence ministry limb'
p1063
g3
sS'@indian_defence @natkhat_basanti soldiers b allowed kill bloody politicians ruining r country'
p1064
g3
sS'manthony indian defence minister learn gesisi fight terror #mb_are_terrorists r++ pitwitter.coxglklxpd3v'
p1065
g3
sS'indian railways gets model rake luxury make india coaches krantikari post ht/ bil29omcur'
p1066
g23
sS'@inandoutkabaddi @suhailchandhok thats engrossing listen hope bring data led thinking indian sports'
p1067
g11
sS'certifies iff module meads missile ht/ dlvi3vzxbk #world'
p1068
g3
sS'foil pakistan armys evil designs ht/ dlvi3x34rr #india'
p1069
g3
sS'british firms miss hinkley nuclear plant contracts ht/ dlvi48sn7b #world'
p1070
g3
sS'brides pakistan wear dresses hijab rt @indian_defence pakistani bridal fashion week kicks lahore ht/ dlvi471cdd'
p1071
g3
sS'" @indian_defence mumbai congress chief wants singer lata mangeshkar stripped bharat ratna ht/ dlvi4jdmb0 #india modi proximit'
p1072
g3
sS'rt @indian_defence indirussia naval ties prosper ht/ dlvi3z7f3b #india'
p1073
g3
sS'rt @indian_defence ashton carter quits blow uindia defence ties ht/ dlvi4703kf #india @yusufdfi'
p1074
g3
sS'official says cifunded weapons begun reach syrian rebels'
p1075
g3
sS'got lot learn rt india israedemocracies deepen ties ht/www indiandefenccoforums/strateg igeopolitical-issue31320-india-israel-democracies-should-deepen-tiehtml#.uhpalt5tvz8.twitter @indian_defence'
p1076
g3
sS'damaging great institution indian defence review ht/www indiandefencereviecodamagina-gre ainstitutiouodxeiz6emg.twitter'
p1077
g3
sS'@indian_defence super hornet production line close ht/ dlvi3qwwvh #world @jrvianney @emouchet2'
p1078
g3
sS'best wishes eve indian air force day guardians skies @adgpi @indian_defence @indianairforce_ #india #mumbai #pune #nashik'
p1079
g3
sS'stem research daily ht/ papeltrailblazerbf/ 1305292852 stories today @luckaz @tacosforamy @indian_defence'
p1080
g3
sS'new delhi mice roar indian defence review ht/www indiandefencerevieconews/nedelhi mice-cant-roauhao6p_zmbk.twitter'
p1081
g3
sS'#globalinterests #royalnavy @indian_defence mbdas sea ceptor selected royal new zealand navys anzac ht/ dlvi45xd2m #world "'
p1082
g3
sS'embassy innovation norway partner enhance understanding indian defence sector guidelines pitwitter.coqdvvtcpphe'
p1083
g3
sS'#globalinterests @indian_defence new deposit coal bangladesh ht/ dlvi41gbdm #world "'
p1084
g3
sS'chanced 200gem ashleytellis india asian geopolitics indian defence review ht/www indiandefencerevieconews/indiin- asiageopoliticume8yiv1k3w.twitter'
p1085
g3
sS'bjp oppose govt gold temples ht/ dlvi3tlz1v #india'
p1086
g3
sS'1971 war battle chickens neck indian defence review ht/www indiandefencereviecospotlights/197 war-the-battle-of-chickens-necujsppy4rkam.twitter'
p1087
g3
sS'stop posting modbjp/congress threads indian defence section ht/ bil13sciz4 #india'
p1088
g3
sS'national security nation expect pm stop swimming slush indian defence review ht/www indiandefencerevieconews/national securitcan-the-nation-expect-pm-to-stop-swimming-in-slusuixtqpdatqo.twitter'
p1089
g3
sS'mig deck vikramaditya aviation tests passed ht/www indiandefenccoforums/indian nav3286mig-over-deck-vikramaditya-aviation-tests-passehtml#.ujzfisa6y94.twitter @indian_defence'
p1090
g3
sS'@indian_defence team search wii remains tripura ht/ dlvi3wynnh #india discussed iaf pawnahans 2012 action'
p1091
g3
sS'indian defence minister urges pm boycott srilankan @chogm2013 ht/ transtamilconoindian-def encminister-urges-pm-to-boycott-srilankan-chogm @david_cameron @hugoswire @jonsnowc4 @aiindia'
p1092
g3
sS'japan launches epsilon" rocket kagoshima ht/ dlvi3ygvqw #world'
p1093
g3
sS'44 kgs gold disappear air france flight ht/ dlvi41shny #world'
p1094
g3
sS'speechles!! @indian_defence rajya sabha mps involved inflated travel bills scam sources ht/ dlvi3sgqwh #india "'
p1095
g3
sS'india shining daily ht/ papelindiashining_ stories today @youtubeindia @indiashining_ @indian_defence'
p1096
g3
sS'" @indian_defence engaged space race china isro ht/ dlvi4cptfy #india oh yeah kno'
p1097
g3
sS'@indian_defence government hand gloves responsible surprise charges filed ye'
p1098
g3
sS'ht/www northropgrummacoaboutus/analys iscentedocuments/pdfs/the_2018_bomber_the_case_for_pdf rt @indian_defence nglrs ht/ dlvi43x2lm #world'
p1099
g3
sS'" @indian_defence china colluding pakistan repeat 1962 ht/ dlvi3r2rgp #china @srisrispeaks'
p1100
g3
sS'great sense betrayal india feels let manmohan ht/ dlvi4k5pvp #india'
p1101
g3
sS'hope situation remains control @indian_defence indian #army pulls #ghatak commandos near #loc ht/ dlvi3qq4rd #india "'
p1102
g3
sS'@indian_defence centre covering chinese incursion arunachal ht/ dlvi3rhqfv #india'
p1103
g3
sS'desi bi.. #lca #jaihind ! @military_indian @indians4israel @indian_defence pitwitter.coetdjup9v2d'
p1104
g3
sS'test skill & luck @indian_defence s27sms vs s27sms dogfight training ht/ dlvi3v7tvb #india "'
p1105
g3
sS'indian defence procurement panel nod 6 firm lookheed martin 130j folloon order rs000 crore'
p1106
g3
sS'mone.. innocent proven guilty helps attraction @indian_defence london: europeancapital ht/ dlvi3smdvd #world "'
p1107
g3
sS'chinese dream seven perils indian defence review ht/www indiandefencerevieconews/thchine sdream-is-over-the-seven-perilukp1gp6srye.twitter'
p1108
g3
sS'@indian_defence ulta chor kotwal ko daante'
p1109
g3
sS'indian defence ministry consider buying israelbuilt spike anttank guided missiles later month ht/www defensenewcoarticle/201311 1defreg03/311110018'
p1110
g3
sS'pakistan splinters indian defence review ht/www indiandefencerevieconews/ipakist asplinteruntzsylxhiq.twitter'
p1111
g3
sS'uss san antonio lpd 17 sixth navy vessel deployed syria ht/ dlvi3tsjd7 #world'
p1112
g3
sS'just looks like indian defence minister wearing russian hat #ins #vikramaditya htt/ pbtwimg.comedia/bzmfylfc yaap1ijpg'
p1113
g3
sS'#indian defence deals bogged corruption leading sacrifices practising real encounters #sindhurakshak'
p1114
g3
sS'#bmd @indian_defence lockheed martins aegis ballistic missile defense complete highest target ht/ dlvi45xczm #world "'
p1115
g3
sS'world getting dangerou.. lets cut @indian_defence globalunrest spreads s. slashesmilitary ht/ dlvi3qfpgv #world "'
p1116
g3
sS'#india sends strong message china flies it biggest warplane super hercules highest airfield daulat beg oldi @indian_defence'
p1117
g3
sS'@nileshmsaraf @bondbo007 mera man tou @indcivilservice ya @indian_defence mein se kisi m jane ka ha.. prep onl..'
p1118
g3
sS'agni v test consolidation missile capability required ht/www securitriskcosearch-content phagni&x=0&y=0&sa=search&cx=partnepub-4486531929080955%3anancbnya98w&cof=forid%3a10&ie=iso-8859-1 @headlinestoday @defencetalk @defenceiq @indian_defence'
p1119
g3
sS'rank pension obligation fulfilled indian defence review ht/www indiandefencerevieconews/onrank- onpension-an-obligation-to-be-fulfilleuiswh_ndb7y.twitter'
p1120
g3
sS'line #indian defence indian #hockey goalkeepers !! rt share <3 hit y fans hockey .. ht/ fm2bgaimmbf'
p1121
g3
sS'maldives indian ambassador rajeev shahare car attacked outside high commission'
p1122
g3
sS'dear @sureshpprabhu sir happy birthday sir god bless shosers happiness n success indian railways rgds'
p1123
g23
sS'does indian defence forces reacts act stop infiltration reduce unnecessary arguments national tv channel'
p1124
g3
sS'china questions indian defence review ht/www indiandefencerevieconews/chinsom questionuocvyoqt6cc.twitter'
p1125
g3
sS'delhi mumbai 12 hours talgo wil 2 pass 3 tests indianrailways ht/www financialexprescoindinews/tal gtrials-indian-railways-suresh-prabhu-delhi-mumbai-rajdhani-high-speed-trai316425/v4fn6he-xis.twitter @sureshpprabhu'
p1126
g23
sS'indian defence putting great fight need mifield tightened forwards penetrate scor! #asiacup13'
p1127
g3
sS'@adgpi indian student subhanjan saha builds drone bomber 400 ibtimes uk ht/www ibtimeco.uarticles/50119 20130824/dronindia-student-pakistan-kashmir-china-uahtm#.uhj1qek6a4c.twitter @indian_defence #indianarmy'
p1128
g3
sS'indian defence forum sub forum balochistafreedom struggle ht/ bil16fud7b #pakistan'
p1129
g3
sS'#india pm suggests 8 areas india china cooperate ht/ dlvi4bxq2y rt @indian_defence'
p1130
g3
sS'wars china sure fight 50 years indian defence review ht/www indiandefencerevieconews/siwars- chinis-sure-to-fight-in-the-next-50-yearul-eyekx8oo.twitter'
p1131
g3
sS'coming king @kasparov63 heartwarming statement slaves kings indian defence !'
p1132
g3
sS'aff championship minutes game afghanistan early lea! good play lions khorasan cut open indian defence'
p1133
g3
sS's30mk21236 rt @indian_defence ht/ dlvi40xhsr #world'
p1134
g3
sS'@indian_defence smoke cock & bull article hide covert operations'
p1135
g3
sS'indias solapowered train #solarpower #solarpanels #indianrailways #incredibleindia #solarpoweredtrains ht/ olns29300hzc7'
p1136
g23
sS'india defence satellite gsa7 launched successfully ht/ dlvi3tlkjr #india'
p1137
g3
sS'ingalls starts building 30th ddg 51 destroyer ht/ dlvi3zdn9y #world'
p1138
g3
sS'saudi arabia legalises 80000 pakistani workers ambassador ht/ dlvi4dpxr6 #pakistan'
p1139
g3
sS'" @indian_defence pak troops making mistake violating ceasefire indian army warns ht/ dlvi3qdbsf #india @sanjay_uvach'
p1140
g3
sS'marine commandos indian magermach crocodile #jai_hind_jai_bharat @military_indian @indian_defence @indians4israel pitwitter.co12l5ksvnvm'
p1141
g3
sS'@indian_defence coz pak army doing operation freedom fighter instead helping peoples'
p1142
g3
sS'pakistani troops saturday violated ceasefire line control poonch region according indian defence spokesperson'
p1143
g3
sS'great article maj gen thapliyal return haji pir pass 1965 myth reality indian defence review ht/www indiandefencereviecospotlights/ret urof-haji-pir-pass-in-1965-myth-and-the-realituimzturyffo.twitter'
p1144
g3
sS'chinese game plan indian defence review ht/www indiandefencerevieconews/thchine sgame-plauhzzuebqgci.twitter'
p1145
g3
sS'indiorigin scientist explains life began earth ht/ dlvi4g2vmt #india'
p1146
g3
sS'pov indian defence capabilities chinese bid ht/ thediplomaco2013/06/06/ind iaanti-access-trump-card'
p1147
g3
sS'25 countries brainpower ht/www indiandefenccoforums/worla ffair352725-countries-most-brainpowehtml#.umkdk7_h_ca.twitter @indian_defence'
p1148
g3
sS'bhutan chinese grab land indian defence review ht/ m1agk0q3'
p1149
g3
sS'tiens quand parle rt @indian_defence training firm buys 25 mi21 fighters ht/ dlvi449x1m @combatair'
p1150
g3
sS'@indian_defence strong leadership india guarantee stability entire indo pacifi'
p1151
g3
sS'indian air force helicopter forced make unscheduled landing ht/ dlvi3pdkbr #india'
p1152
g3
sS'ti phir @pm ji kiske rakhawale hai @aajtak @iyerideology @pmoindia @hm_evots @ippatel @shilpitewari @rightandbold @indian_defence @saboovika'
p1153
g3
sS'#telangana formation telangana state page 43 indian defence analysis ht/ ol2atoud'
p1154
g3
sS'2009 rt @indian_defence ht/ dlvi3w1msh #world'
p1155
g3
sS'india havdelhmumbai bullet train palwamathura minutes @sureshpprabhu sir #indianrailways #talgo htt/ twittecosanjay_dixit/s tatu753393017227182080'
p1156
g23
sS'rt @indian_defence india tcs world second valuable services firm ht/ dlvi3ysptx #india'
p1157
g3
sS'#world news india enter $5bn defence deals new delhi having bagged indian defence contracts .. ht/ ol2zrwv3'
p1158
g3
sS'chinese vision sinpak strategic partnership indian defence review ht/www indiandefencereviecospotlights/the chinese-vision-of-sino-pak-strategic-partnership-umdtyzkq0ff.twitter'
p1159
g3
sS'detroit bankruptcy case court ht/ dlvi4bgbkx #world'
p1160
g3
sS'@timesofindia salute scientists india contribution building indian defence ..'
p1161
g3
sS'india goes ahead massive arms shopping indian defence ministry friday ht/ gogfb/kfqjx #military'
p1162
g3
sS'@indian_defence northrop developing #laser #missile jammer 35 ht/ dlvi3ykbsq #world'
p1163
g3
sS'integrated theatre commands indian defence review ht/www indiandefencerevieconews/integrate theatre-commanduocwo1jdcve.twitter'
p1164
g3
sS'" @indian_defence phone pakistan revealed imam im links ht/ dlvi44rbhf #india @sanjay_uvach @maheishgirri'
p1165
g3
sS'german group claims hacking iphone 5s touch id ht/ dlvi41jf5m #india'
p1166
g3
sS'time india practive indian defence review ht/ licom/g0da india leadership sucks big time mofos'
p1167
g3
sS'@indian_defence told hallo'
p1168
g3
sS'@unmuktchand9 u love defence profession ..join #indian #defence'
p1169
g3
sS'new low army leadership indian defence review ht/www indiandefencereviecospotlights/n elow-in-army-leadershiumnin_pt68i.twitter'
p1170
g3
sS'@ac_navalhistory @briw74 @indian_defence precisely humanitarian interventions normally emotive policy drive'
p1171
g3
sS'3411724 rt @indian_defence ht/ dlvi43gjxg'
p1172
g3
sS'inside story samba attack indian defence review ht/www indiandefencerevieconews/thinsid story-of-samba-attacukoek3ss-25.twitter'
p1173
g3
sS'india buy additional 130js indian defence ministry given gahead purchase .. ht/ bil1efefzj'
p1174
g3
sS'@indian_defence future stops getting ahea'
p1175
g3
sS'1115166 rt @indian_defence ht/ dlvi4flfyj #india'
p1176
g3
sS'subcontracting afghanistan pakistan indian defence review ht/www indiandefencerevieconews/usubcon tractinafghanistan-to-pakistaui02gaeysue.twitter'
p1177
g3
sS'stars ancient costume ht/ dlvi4766vp #china'
p1178
g3
sS'denzil franco gave away freekick schrock delivery cleared safety indian defence #indianfootball'
p1179
g3
sS'usaf space command discontinues space surveillance ht/ dlvi3pntw4 #world'
p1180
g3
sS'@digvijaya_28 @sagar_iitm indira gandhi indian defence forces n citizen rss members r citizenry sense'
p1181
g3
sS'#elephantwalk wow that crazy @indian_defence twenttwo cargo planes celebrate 11 anniversary ht/ dlvi3y10wx #world "'
p1182
g3
sS'bas abb #nepal ki baari hai @indian_defence 3m pakistan china myanmar army intrudes india ht/ dlvi3ssf2w #india "'
p1183
g3
sS'pakistan land treachery terror indian defence review ht/www indiandefencereviecopakistaa-lan of-treachery-and-terror'
p1184
g3
sS'korea broke indian defence convert forward failed deflect properly india leading nil #indianhockey'
p1185
g3
sS'i28 rt @indian_defence ht/ dlvi45pjzf'
p1186
g3
sS'iaf flagged mig issues government response slow ht/www indiandefenccoforums/indian aiforc31302-iaf-flagged-mig-issues-but-government-response-slohtml#.uhm6uvoqwxk.twitter @indian_defence'
p1187
g3
sS'" @indian_defence 33 inmates juvenile home escape delhi 14 held ht/ lidlvr.it/i2xq #india wud 1'
p1188
g3
sS'congratulations ib bhatkal arrest major breakthrough indian defence'
p1189
g3
sS'@indian_defence money gulf that fueling terror aspect state rule congress ldf help matte'
p1190
g3
sS'sorry state indian defence manufacturing ht/ papyrustonblogspot.i2013/10/gori lland-guerillhtm1'
p1191
g3
sS'@abpnewstv pm try unite hindu & muslims country & main aim make indian defence powerfuproud india'
p1192
g3
sS'raytheon quietly developing new cruise missile technology ht/ dlvi42ksn5 #world'
p1193
g3
sS'"what rose indian defence minister ak antony describes huge explosion.. ht/ tobetodaorposts/indila mentsubmarine-tragedy'
p1194
g3
sS'lol @indian_defence narendra modi biggest terrorist india says nitish minister ht/ dlvi4lgs3t #india "'
p1195
g3
sS'indian defence news nehru allowed overflights spy planes report ht/www bharatdefencekavacconews/34318_neh rallowed-overflights-of-us-spy-planes--reporhtml#.uopbhj3yuu8.twitter chacha420'
p1196
g3
sS'@indian_defence comment prospect nuclear jihad south asia musa khan jalalzai ht/ dlvi44n53g #world'
p1197
g3
sS'boeing needs make dreamliner reliable 777 ht/ dlvi4l57ht #world'
p1198
g3
sS'nsa scooped tens thousands private emails ht/ dlvi3rdrqt #world'
p1199
g3
sS'indian forest officer singlhandedly reclaims 000 acres 3 years ht/www indiandefenccoforums/social currenaffair34310-forest-officer-single-handedly-reclaims-6-000-acres-3-yearhtml#.uladn7c_e50.twitter @indian_defence'
p1200
g3
sS'watch china eyeing andamans @manoharparrikar @narendramodi ht/ idrorwatcchina-ma eyeing-andamans'
p1201
g40
sS'americas considerable forays indian defence market deals worth rs 4000 cr nearly rs 3000 cr soon ht/www defencenewidefencnews-i nternaasgenew&id=1941'
p1202
g3
sS'@gulpanag @indian_defence continues drag prestige office sad reall'
p1203
g3
sS'indian defence industry issues selreliance laxman k behera ht/www idsimonograph/indi andefenceindustry'
p1204
g3
sS'yusupov immortal chess game ivanchuk vs yusupov 1991 kings indian defence ht/ youtbc3dabosqula @youtube'
p1205
g3
sS'wow mach ..amazed... @indian_defence lockheed martin reveals plans s72 cruising speed mach 6 ht/ dlvi4g5qv8'
p1206
g3
sS'solution j & k problem lies new delhi indian defence review ht/www indiandefencerevieconews/solution tj-k-problem-lies-in-new-delhi ht/ fm5s1lezb6i'
p1207
g40
sS'indian defence selsufficiency reforms falling flat read op ed piece free ht/ ihsjanes36com'
p1208
g3
sS'#thingsthatamazeforeigners .. indian defence minister giving clean chits pakis'
p1209
g3
sS'pakistan invited indian defence attache attend exercise cholistan positive development peace indi'
p1210
g3
sS'@indian_defence it good u support #freesindh it historical need region'
p1211
g3
sS'@indian_defence usaf report unmanned aircraft sept ht/ dlvi3pntvj #world @fraberni'
p1212
g3
sS'sonia gandhi chhattisgarh accuses bjp antpoor ht/ dlvi4jyngf #india'
p1213
g3
sS'" @indian_defence jaya produces proof gandhis intent dissolve congress ht/ dlvi3zfhfv #india ahaaa #ripcong'
p1214
g3
sS'@awakeindian @indian_defence 25% operational life remaining worth alternative needed russi'
p1215
g3
sS'hot newlatest vdo british royals meet war veterans indian defence staff british royals meet wa.. ht/ dlvi4hygdq jesif'
p1216
g3
sS'intelligence need enhanced focus china indian defence review ht/www indiandefencerevieconews/intellige ncneed-for-enhanced-focus-on-chinun6mxznhm6a.twitter'
p1217
g3
sS'forest officer singlhandedly reclaims 000 acres 3 years ht/ dlvi46yzvg #india'
p1218
g3
sS'india china border conundrum indian defence review ht/www indiandefencerevieconews/thindia china-border-conundruujhrmqtllcg.twitter'
p1219
g3
sS'osintjournal daily report ht/ papeltheosintjourna 1326056383 stories today @indian_defence @saftergood @intelwire'
p1220
g3
sS'japan pm says ready assertive china ht/ dlvi4cvnjx #world'
p1221
g3
sS'nehru wanted scuttle sardar hyderabad plans ht/www indiandefenccoforums/militar history-strateg22112-nehru-wanted-scuttle-sardars-hyderabad-planhtml#.unsgb-t1gxw.twitter @indian_defence'
p1222
g3
sS'{ias prelims 2003} reference indian defence following statements correct.. ht/ fm301qmouvb'
p1223
g3
sS'demographic invasion india north east indian defence review question illegal bangladeshi migrants ht/www indiandefencerevieconews/demograph iinvasion-of-india-from-the-north-easujqojqtyayi.twitter'
p1224
g3
sS'it core capability @indian_defence navy wait minesweepers continues govt ink deal ht/ dlvi3ykw74 #india "'
p1225
g3
sS'russian navy hovercraft lands busy beach ht/ dlvi3rby4n #india'
p1226
g3
sS'mars rover curiosity drives solo time ht/ dlvi3tt82s #india'
p1227
g3
sS'navy submariner convicted attempting spy russia ht/ dlvi3rf3cf #world'
p1228
g3
sS'drdo likely delay cannon launched guided missile test weather ht/www indiandefenccoforums/indian defencindustr31112-drdo-likely-delay-clg-missile-test-due-weathehtml#.uhsgbvtclzu.twitter @indian_defence'
p1229
g3
sS'@chandrusweb @indian_defence regiment changed dogras years good reason'
p1230
g3
sS'indian defence satellite launched succesful... ht/ toik0dj4y'
p1231
g3
sS'rapto.. s. 22 stealth fighter pilot taunted iranian 4 phantom combat planes ht/www indiandefenccoforums/s-eur op3274u-s-f-22-stealth-fighter-pilot-taunted-iranian-f-4-phantom-combat-planehtml#.ujq_xsqn0do.twitter @indian_defence'
p1232
g3
sS'ht/www indiandefencereviecowcontent/plu ginsaimages/lm_c130_india_331x270_9-26-1jpg indian defence review ht/www indiandefencereviecom'
p1233
g3
sS'" @indian_defence govt making indian navy bleed ht/ dlvi3plvkb #india @srisrispeaks @srisrispeaks'
p1234
g3
sS'army plans armour ht/www bbco.unews/technolog 24474336 indian defence r&d follow sui'
p1235
g3
sS'@indian_defence interested pakistan pm zardari ht/ dlvi3whbdt #pakistan neighbors having dream.'
p1236
g3
sS'@indian_defence saab barracuda modular soft armour ht/ dlvi434ptk'
p1237
g3
sS'exercise shahbaaz 2013 indtajikistan combined special forces exercise ht/ dlvi4g2vlq #india'
p1238
g3
sS'pc engla... challenge indian defence #junior #hockey #indvseng @hockeyind'
p1239
g3
sS'300mig-29 rt @indian_defence serbian air force buy stealth.. ht/ dlvi3r3gcd #world'
p1240
g3
sS'rt @indian_defence iran send caastronaut space ht/ dlvi3zqf1f #world'
p1241
g3
sS'eurozone comes recession ht/ dlvi3pqfsr #india'
p1242
g3
sS'@thekiranbedi tomorrow u truth mod takes cbi action gaddhar vk singh shame 4 india n indian defence try sell'
p1243
g3
sS'@indian_defence libyan mi21 fishbed fighter jets north africa ht/ dlvi3wyc3k #world @combatair @cencio4 @pietro_nurra'
p1244
g3
sS'@thinkerspad @gen_vksingh lot people need tried treason weakening indian defence shocked dat people runng govt'
p1245
g3
sS'bhutan chinese grab land indian defence review ht/www indiandefencereviecospotlights/in bhutatoo-chinese-grab-lanui02secjbe0.twitter'
p1246
g3
sS'happy returns day @sureshpprabhu sir wish u good health make indian railways good healt!'
p1247
g23
sS'india pulled apart indian defence review ht/www indiandefencereviecospotlights/ind ibeing-pulled-apart-from-withiuowverxj1sy.twitter'
p1248
g3
sS'3 ht/www newsloosco2015/08/19/%e0 %a4%b9%e0%a4%be%e0%a4%88%e0%a4%9f%e0%a5%87%e0%a4%9%e0%a4%b9%e0%a5%8b-%e0%a4%97%e0%a4%af%e0%a4%be-%e0%a4%ad%e0%a4%be%e0%a4%b0%e0%a4%a4%e0%a5%80%e0%a4%af-%e0%a4%b0%e0%a5%87%e0%a4%b2-%e0%a4%utm_sourcreviveoldpost&utm_medium=social&utm_campaign=reviveoldpost #ac3tiercoach #indianrailways #sureshprabhu #akhileshdestroyedup'
p1249
g23
sS'submits list 10 defence items transfer india idea abt list includes @indian_defence @indiaarmy #loc #usa'
p1250
g3
sS'bdca self inflicted wound indian defence review ht/www indiandefencerevieconews/bdcanot heself-inflicted-wounumqgpepiwxa.twitter'
p1251
g3
sS'splitting india ht/www indiandefenccoforums/strateg igeopolitical-issue35977-splitting-indihtml#.unv7lptv-ns.twitter @indian_defence'
p1252
g3
sS'mars multpurpose ailaunched rocket ht/ dlvi3w5vcf #world'
p1253
g3
sS'india china bdca unexplained indian defence review ht/www indiandefencerevieconews/indichi nbdca-unexplaineunmq77vjaiy.twitter'
p1254
g3
sS'indian #defence scientists said #india able built strategic #missiles strike targets 1000 km awa'
p1255
g3
sS'#defenceofficersinbusiness daily ht/ papeldefenceinbiz/1 316239902 stories today @military_tech @indian_defence'
p1256
g3
sS'rt" @indian_defence sexual harassment india story wanted ht/ dlvi3rqfk4 #world "'
p1257
g3
sS'@beingsalmankhan handbal team fund going participate championship & indian sports minister supporting game'
p1258
g11
sS'@thinking_major @indian_defence makes sense said nostory'
p1259
g3
sS'new delhi mice roar indian defence review ht/www indiandefencerevieconews/nedelhi mice-cant-roauhavtfcbcrk.twitter'
p1260
g3
sS'@punditmusings @anarchified ncc created indian defence act 1917 object 2 make shortage army 1920 2'
p1261
g3
sS'new delhi pakistan high commissioner india salman bashir said indian defence minister levele.. ht/ fm11mg3gpfj'
p1262
g3
sS'new delhi mice roar indian defence review ht/ m1aa14rt'
p1263
g3
sS'really want undergo #army waali hard #training #indian defence #adopt m'
p1264
g3
sS'india expected approve barak missile buy ht/ dlvi4k5ykt #india'
p1265
g3
sS'security international relations & politics image perception & reality @indian_defence ht/ dlvi3wqwqm #world "'
p1266
g3
sS'indian defence awards ht/www bit4alcoindiadefence awards ht/ fm2kjrzykit'
p1267
g3
sS'shutdown halts nasa efforts rinvite banned chinese researchers organizers ht/ dlvi4766tf #world'
p1268
g3
sS'#pakistan  time rogue states payback time pakistan indian defence review ht/www indiandefencereviecospotlights/pay bactime-pakistaunhvrvxk3k8.twitter'
p1269
g3
sS'thank #indianrailways @halfticketmovie ht/ youtbuuuhe5v45n8 releasing july 22 pitwitter.cof7unc1snmb'
p1270
g23
sS'spearhead completes testing milestone ht/ dlvi45xd66 #world'
p1271
g3
sS'army n military forces defence countr. pandal!! #lalbaughcharaja @military_indian @indian_defence'
p1272
g3
sS'paris quiet indian defence review ht/www indiandefencerevieconews/parithe quiet-shoujcag00r-ec.twitter'
p1273
g3
sS'nosint daily ht/ papelkobusnl/130769 1718 stories today @indian_defence @natosource @breakingdefense'
p1274
g3
sS'chinus- north korea dynamics strategic triangle indian defence review ht/www indiandefencereviecospotlights/chi nus-north-korea-the-dynamics-of-a-strategic-triangluimhnuwkny8.twitter'
p1275
g3
sS'spied indian defence shi! #ca student #hacks #anilambani #itaccount loses mind! #india #hyderabad'
p1276
g3
sS'islamabad forced conversion islam accuser arrested ht/www indiandefenccoforums/pakista 3468islamabad-forced-conversion-islam-accuser-arrestehtml#.ul9tn94fa9i.twitter @indian_defence'
p1277
g3
sS'@indian_defence informative article . thank posting'
p1278
g3
sS'indian defence said comptroller failed understand basic facts chopper deal #aw101 #agustawestland ht/www shephardmediconews/rotorhub/ indiamod-slams-auditors-report-about-aw101-deal'
p1279
g3
sS'poor mapping military survey indian defence review ht/www indiandefencereviecospotlights/poo mapping-by-military-surveuil0jixg16u.twitter'
p1280
g3
sS'wordpress template indian defence news blog 1502000 idrw ht/ subdomaincolgos'
p1281
g3
sS'indian negotiator giant rafale fighter deal dies indian defence official negotiating $12 billion .. ht/ bil18vryv2'
p1282
g3
sS'@indian_defence thats weak leadership small neighbours turning indi'
p1283
g3
sS'scientists plan exodus china amid funding concerns ht/ dlvi4cctg4 #china'
p1284
g3
sS'pakistan high commissioner india salman bashir said indian defence minister leveled baseless allegations #pakarmy'
p1285
g3
sS'navy divers recover bombs barrier reef ht/ dlvi3ty0n4 #world'
p1286
g3
sS'tatsingapore airlines tiup seen reaffirming india aviation potential ht/ dlvi40y0ds #india'
p1287
g3
sS'japan exercises send strong message china ht/ dlvi4d7mx1 #world'
p1288
g3
sS'@indian_defence west going technically advanced leaner meaner army need numbers power projectio'
p1289
g3
sS'@sureshpprabhu nice ac waiting rooms indian railways .. @narendramodi gave india best min pitwitter.cooeileldzo9'
p1290
g23
sS'dbo indias response defence preparedness indian defence review ht/www indiandefencereviecospotlights/dbo indias-response-and-defence-preparednesulqynka-_dw.twitter'
p1291
g3
sS'agar aap k antony ko iron hand indian defence samajte ho @aapchutiyehain'
p1292
g3
sS'earlier indian defence minister said terrorists crossed loc bjp pressure changes stance'
p1293
g3
sS'@avivaindia #whatsyourbigplan plan n c130j n insvikrant indian defence'
p1294
g3
sS'ins #vikramaditya aircraft carrier #mig 29k tests'
p1295
g3
sS'uncovering war indian express ht/ shaeiaeab @sharethis salute brothers indian defence force'
p1296
g3
sS'malaysia option consider advanced super hornets says boeing official ht/ dlvi42ksqc #world'
p1297
g3
sS'@indian_defence banks small island countries providing facilit'
p1298
g3
sS'@indian_defence pm manmohan sleepi.....oh god happenin'
p1299
g3
sS'destroyed weapons iraq ht/ dlvi3sfpfs #india'
p1300
g3
sS'indonesian mp says country coalition asylum boat policy ht/ dlvi40dlzd #world'
p1301
g3
sS'" @indian_defence bear kills 2 terrorists j&k ht/ dlvi4clxzp #world old news worth rting heh.'
p1302
g3
sS'@indian_defence congress government wants punish cause work nations interes'
p1303
g3
sS'@helpingrhinos whers indian defence forc?? shld protect heritag!! savery sa!!'
p1304
g3
sS'indian defence minister k. antony alleged pakistan infiltration indi'
p1305
g3
sS'@gulpanag @indian_defence surprised change today enter parliament way'
p1306
g3
sS'#china #india #iran #israel #russia #turkey drone report ht/www openbriefinorthinktank/publ icationremotcontrol-war/ @indian_defence @defencepk @diplomat_apac @chinesedefence'
p1307
g3
sS'eurofighter typhoon s dassault rafale analysis ht/www indiandefenccoforums/indian aiforc22158-eurofighter-typhoon-v-s-dassault-rafale-analysihtml#.ui0rr_sgmt4.twitter @indian_defence'
p1308
g3
sS'tomorrow indian defence secretary touch submarine tragedy russia visit mon 19 aug 2013 ht/www zapadacoevent/524383/0'
p1309
g3
sS'@gulpanag @indian_defence olive green khaki cross ventilated knickers army chief chieftain defence quite screwed'
p1310
g3
sS'indian government wai.. tilll pakistani troops remove indian defence minister lun.. ht/ timesofindiindiatimes.coindia/ceasefir violation-by-pakistan-one-bsf-jawan-killed-in-firing-four-injurearticleshow/2456861cms'
p1311
g3
sS'indias cag raps hal selling alhs cost price ht/www indiandefenccoforums/indian defencindustr30878-india%92s-cag-raps-hal-selling-alhs-below-cost-prichtml#.uhb_wxkwahs.twitter @indian_defence'
p1312
g3
sS'egyptian epresident hosni mubarak released jail ht/ dlvi3rpkzn #world'
p1313
g3
sS'president pranab mukherjee probationers indian defence accounts service 2010 rl 2012 batches a.. ht/ fmmastolpd'
p1314
g3
sS'50 killed 100 injured stampede datia district madhya pradesh ht/ dlvi47msy9 #india'
p1315
g3
sS'conference calls jihad holy war ahmadis ht/ dlvi3zvgj4 #pakistan'
p1316
g3
sS'" @indian_defence taiwan plans buy warships ht/ dlvi3tz3yq #world hullo china u deserve thiindia shd befriend tai'
p1317
g3
sS'indian defence minister antony commission ins vikramaditya refitted admiral gorshkov russia 12 noon ist today'
p1318
g3
sS'lengthy exposition indian defence econom.. published today special supplement business standard ht/ ajaishuklblogspot.i2013/09/aove rvieof-indias-defence-economhtml'
p1319
g3
sS'amid rising tensions nuclear armed neighbours indian defence minister k antony wednesda.. ht/ fm14uiqyybm'
p1320
g3
sS'advancing borders chinese empire indian defence review ht/www indiandefencerevieconews/thadvan cinborders-of-the-chinese-empirujrudsmlu9g.twitter'
p1321
g3
sS'@metabletfromhcl #aproudchange dat today hv equal participation girls indian defence boyz'
p1322
g3
sS's. army capt excels indian armys high altitude warfare school ht/www indiandefenccoforums/indian strategiforce31283-u-s-army-capt-excels-indian-army%92s-high-altitude-warfare-schoohtml#.uhjeaquse2g.twitter @indian_defence'
p1323
g3
sS'chinese army intrudes arunachal refuses vacate ht/ dlvi3psgm0 #india'
p1324
g3
sS'science education diversity ht/ papelblackphysicist 1314565510 stories today @tim535353 @prusakmaneuver @indian_defence'
p1325
g3
sS'@indian_defence @bharat_builder 16twhy todaevery rupee important waiwork overnight bring @bharat_builder'
p1326
g3
sS'indian defence ministry review petition rejection drones kaziranga np assam @indiasen ht/ m1a5jw47'
p1327
g3
sS'ha h..rof... rt @indian_defence czech republic president gets middle finger ht/ dlvi4bm2q0 #world'
p1328
g3
sS'@indian_defence india nuclear blunder ht/ dlvi3schnt #india @srisrispeaks'
p1329
g3
sS'tarmak007 - bold blog indian defence wanted know ins vikramaditya ht/ fm1rmlaldne'
p1330
g3
sS's. marines turn noses obamas new girly hats'
p1331
g3
sS'military coup toppling j&k government indian defence review ht/www indiandefencereviecofromilitary- couto-toppling-jk-governmenukzmgnicu0y.twitter'
p1332
g3
sS'sam manekshaw leadership discipline indian defence review ht/www indiandefencereviecospotlights/sam manekshaw-on-leadership-and-disciplinuj297e9rycy.twitter'
p1333
g3
sS'@ajaymaken @withrg jai hind great ins vikramadithya going enrich indian defence proud @pmoindia make world peace'
p1334
g3
sS'osintjournal daily report ht/ papeltheosintjourna 1326056383 stories today @exploitdb @indian_defence @aspi_org'
p1335
g3
sS'giants skimp research development ht/ dlvi3qx6sk #world'
p1336
g3
sS'@indian_defence growler capability turn flight redirect ira'
p1337
g3
sS'indus bilateral naval exercise begin tomorrow ht/ dlvi4g2rvx #india'
p1338
g3
sS'@prayingtree @indian_defence counter terrorism best israel example'
p1339
g3
sS'@indian_defence look state emblem flag code india respect honour pitwitter.colryc1jypmb'
p1340
g3
sS'18e vs 15 chinese view ht/ dlvi3wmtym #china'
p1341
g3
sS'maoists crimson tide gen katoch indian defence review ht/www indiandefencerevieconews/maoistc rimsotiduhhht2qcmsy.twitter'
p1342
g3
sS'nepal bags clincher intelligent indian defence slumbering #indvsnep #saff2013'
p1343
g3
sS'iaf impressed airbus a400m ht/ dlvi3qx8wr #india'
p1344
g3
sS'serial blasts rock assam independence day'
p1345
g3
sS'" @indian_defence nasa recycles spacecraft search asteroids ht/ dlvi3rdrs9 #india "'
p1346
g3
sS'army looks delay increase cost ampv program ht/ dlvi44dj5c #world'
p1347
g3
sS'@indian_defence till no?'
p1348
g3
sS'king indian defence'
p1349
g3
sS'zubin music guns boom jammu & kashmir ht/ dlvi3wqqvp #india'
p1350
g3
sS'india neighbours indian defence review ht/ idqburst.cointerviews/ind iand-its-neighbouruiiw1fvw4_k.twitter'
p1351
g3
sS'" @indian_defence indian army chief v k singh concerned china ht/ dlvi3w2mlj #india "'
p1352
g3
sS'boeing investigate air india dreamliner ht/ dlvi48f3b4 #india'
p1353
g3
sS'good plane doubt good @indian_defence pafa counter f22 future aerial warfare ht/ dlvi3pn5hj #india "'
p1354
g3
sS'mi29mig-29 rt @indian_defence ht/ dlvi4bmjhx #world'
p1355
g3
sS'glimpses air force day 2013 air force station hindan indian defence review ht/www indiandefencereviecomedia/glimpses of-air-force-dauoe3mwxyhoq.twitter'
p1356
g3
sS'syrian girl forced called sex jihad world [english subs] ht/ dlvi43htnc #world'
p1357
g3
sS'indius defence ties tremendous progress obama ht/ dlvi3wjktn #india'
p1358
g3
sS'working giving india access defence technology ht/ dlvi3zvff1 #india'
p1359
g3
sS'#defenceofficersinbusiness daily ht/ papeldefenceinbiz/1 316239902 stories today @indian_defence'
p1360
g3
sS'@thinking_major @indian_defence deployment discussed ht/ amphibiousnecessitblogspot.co.u2013/04/april 201notes-strategic-deterrenhtml 4th boat vessel & 5th ssg..4'
p1361
g3
sS'@metabletfromhcl indian defence proved manufacture hfi ships lyk #insvikrant country #aproudchange'
p1362
g3
sS'rt @indian_defence maoists scaring away russian engineers staff hal orissa govt ht/ dlvi45sjz2 #india'
p1363
g3
sS'samsung plans ditch android new tizen os read ht/wwfir ht/ dlvi4jynbf #india'
p1364
g3
sS'science fiction serves purpose .. @indian_defence army plans armour soldiers ht/ dlvi46kgg5 #world "'
p1365
g3
sS'boeing delivers indian air forces 4th 17 globemaster iii indian defence review ht/www indiandefencerevieconews/boeinde liverindian-air-forces-4th-c-17-globemaster-iium7cnotw8i4.twitter'
p1366
g3
sS'future #arctic problems @indian_defence sweden purchase 100 armored vehicles bae ht/ dlvi424vlq #world "'
p1367
g3
sS'govt hand free mobile phones indian defence analysis job govt provide sc.. ht/ bil1gccccx'
p1368
g3
sS'heavy posts coming stay tuned join indian defence forces d'
p1369
g3
sS'@indian_defence iranian 14 new indigenous aa missile actually .phoenix ht/ dlvi42pxgm #world @winstoncn @combatair'
p1370
g3
sS'circuspeak* news world ht/ papelgittyss/130478 5614 stories today @globaminfo @onlybloodyhuman @indian_defence'
p1371
g3
sS'50 hong kong century @indian_defence wants philippines bases 20 years ht/ dlvi3ts1dt #world "'
p1372
g3
sS'6 1965 jai ho indian defence #namoincg red fort shopian mallika sherawat crpf'
p1373
g3
sS'indian defence products seoul adex 2013 ht/ twitpicodjzift'
p1374
g3
sS'god protect ur creation @indian_defence woman denied help forced deliver baby outside hospital ht/ dlvi46hl9x #world "'
p1375
g3
sS'government india ready pakistan salman khurshid ht/www indiandefenccoforums/strateg igeopolitical-issue36078-india-ready-give-pakistan-benefit-doubt-salman-khurshihtml#.uobj1eodd9a.twitter @indian_defence'
p1376
g3
sS'@indian_defence problem indian tv understand india let maoist government backyar'
p1377
g3
sS'wars china sure fight 50 years indian defence review ht/www indiandefencerevieconews/siwars- chinis-sure-to-fight-in-the-next-50-yearulqgttj23e8.twitter'
p1378
g3
sS'#india lease #akula class nuclear #submarine #russian navy ht/ bil29h15zw'
p1379
g40
sS'modi says congress ht/www indiandefenccoforums/nationa politic30822-modi-national-embarrassment-frog-says-congreshtml#.ug5redrlf5c.twitter @indian_defence'
p1380
g3
sS'indias silent sentinels space save million lives ht/www indiandefenccoforums/indian strategiforce34456-india%92s-silent-sentinels-space-save-million-livehtml#.ulqegnsgr3c.twitter @indian_defence'
p1381
g3
sS'@indian_defence shd clarify did promote 6 mnth junioundeserving officer head signals kya khaya @military_indian'
p1382
g3
sS'photographs indian defence review higlights dr hamid .. ht/ bil19vvtqs #swat'
p1383
g3
sS'kashmir spotlight response indian defence review ht/www indiandefencereviecospotlights/kas hmiunder-spotlight-and-our-responsuheevrlrihi.twitter'
p1384
g3
sS'saic awarded contract defense advanced research projects agency ht/ dlvi3q8bss #world'
p1385
g3
sS'added video @youtube playlist ht/ youtbucn9qrbibta nimzo indian defence'
p1386
g3
sS'true true true rt @indian_defence narendra modi rahul gandhi suitable pm arundhati roy ht/ dlvi4lfnzg #india "'
p1387
g3
sS'#independenceday happy independence day salute solidarity brave indian defence soldier forever pitwitter.co8wq4gfuoz7'
p1388
g3
sS'subcontracting afghanistan pakistan indian defence review ht/www indiandefencerevieconews/usubcon tractinafghanistan-to-pakistaui3zgn3iz0m.twitter'
p1389
g3
sS'3 mins korea trying desperately possession make inroads indian defence appear tiring #indianhockey'
p1390
g3
sS'probationers indian defence accounts service president ht/ dlvi47ppch google alert'
p1391
g3
sS'norteast india place national security calculus indian defence review ht/www indiandefencerevieconews/norteas india-its-place-in-the-national-security-calculus'
p1392
g3
sS'chess games night dutch defence kings indian defence scananavian attack london #chess'
p1393
g3
sS'adolf hitler greatest story untold allied propaganda page 5 ht/www indiandefenccoforums/s-eur op3550adolf-hitler-greatest-story-untold-allied-propaganda-html#.um7v_fjgy74.twitter @indian_defence'
p1394
g3
sS'brilliant set infographics indian defence spending ht/ pragatnationalinterest.i2013/09/infogr aphiindias-defence-spending'
p1395
g3
sS'photoshop rt @indian_defence irans air defense force displays indigenous radar capable detect stealth ht/ dlvi41mcmx "'
p1396
g3
sS'@indian_defence hilarious report russia india report..'
p1397
g3
sS'read | new low army leadership indian defence review ht/www indiandefencereviecospotlights/n elow-in-army-leadershium6jrrck2pe.twitter'
p1398
g3
sS'indian defence secy army chief asked explain posting lt gen alleges bias hindustan times ht/ shaez7mhq @sharethis'
p1399
g3
sS'@msdhoni watching ths pic think join indian defence indian army getting retire indian cricket !'
p1400
g3
sS'@indian_defence india consider giving refugee statu'
p1401
g3
sS'indian military afghanistan indian defence review ht/ m15sswwm'
p1402
g3
sS'partly muscling russia israel france indian defence market fgfa mta russians anchored ht/ economictimeindiatimes.coslideshows/inf rastructur5bdeals-four-defence-equipment-india-will-buy-from-us/more-about-super-hercules-aircraft/slideshow/2303070cms'
p1403
g3
sS'nehru wanted scuttle sardar hyderabad plans ht/www indiandefenccoforums/militar history-strateg22112-nehru-wanted-scuttle-sardars-hyderabad-planhtml#.ukkbuy-sraw.twitter @indian_defence'
p1404
g3
sS'russia biggest beneficiary indian defence spent past years $16 billion $38 billion dollars spent ht/ indruieconomics/2013 08/13/russia_remains_indias_biggest_defence_exporter_2839html'
p1405
g3
sS'indian defence news india gets second boeing globetransport plane ht/ olp2cvc'
p1406
g3
sS'@indian_defence navy invites bids help raise sunk sub ins sindhurakshak ht/ dlvi3wrgv6 #india really dropped'
p1407
g3
sS'@indian_defence kudos drdo scientists'
p1408
g3
sS'teenager buried alive alleged rape pakistan survives ht/ dlvi4d2rwg #pakistan'
p1409
g3
sS'dassault rafale analysis ht/ dlvi3rvr5z #world'
p1410
g3
sS'indian railways treating like football online experience ek table se dusre table pe jao d pitwitter.cohav9gze592'
p1411
g23
sS'@master_saab 2019 6 p @indian_defence'
p1412
g3
sS'patna blasts planned instant messaging site investigators ht/ dlvi4gdlck #india'
p1413
g3
sS'@indian_defence said rupee'
p1414
g3
sS'indian defence review higlights dr hamid hussain article pakistan army chief ht/loi ntensitconflict-revieblogspot.co2013/10/indian defence-review-higlights-dhtml'
p1415
g3
sS'ht/ rcousa/dronsand imulti-modal-558 rt @indian_defence ht/ dlvi4l3g2n #world'
p1416
g3
sS'@military_indian writing book indian defence makes falter observation tashkent based k nayar'
p1417
g3
sS'urgenwar terror north west africterrorist threat morocco ht/ dlvi3zzyxt #world'
p1418
g3
sS'1962 nehruvian blunder indian defence review ht/www indiandefencerevieconews/196the- nehruviablundeums17am24uw.twitter'
p1419
g3
sS'pentagon agency twitter account deleted ht/ dlvi40y0kn #world'
p1420
g3
sS'@indian_defence tries include israel used chemical weaponthen include countries mideast westasia'
p1421
g3
sS'antmissile shield frontline navy warships fast eroding ht/ dlvi3x2pys #india'
p1422
g3
sS'#china colluding #pakistan repeat 1962 #indiandefence analyst #bharatverma defence analyst captai.. ht/ fm1xdhqlziv'
p1423
g3
sS'norway defense chief blasts conscripbased military ht/ dlvi43ldyt #world'
p1424
g3
sS'salute indian meteorological department government odisha indian defence fi.. ht/ fm10xdxfub9'
p1425
g3
sS'cutting mirages buying reaper.. @indian_defence france signs deal 16 reapers ht/ dlvi3swpps #world "'
p1426
g3
sS'@indian_defence aegis missile defense completes successful intercept flight test ht/ dlvi40pzhp #world'
p1427
g3
sS'@indian_defence forward policy makin'
p1428
g3
sS'join indian railways #gogreen initiative short film abt usage bitoilets passe.. htt/ youtbzmnttyss8o8 @youtube'
p1429
g23
sS'lca tejas mii prototype year ht/ dlvi3r5k9r #india'
p1430
g3
sS'mod scuttled proposal permanent chairman chiefs staff committee indian defence review ht/www indiandefencereviecospotlights/mod scuttled-the-proposal-for-a-permanent-chairman-of-chiefs-of-staff-committee'
p1431
g3
sS'@sureshpprabhu hbd man shown indian railways managed changed god bles'
p1432
g23
sS'indian defence news indibangladesh border conference begins ht/ pinterescopin/2120210949 30866569'
p1433
g3
sS'possible solution indian defence industry learn history ht/ wmp2onj69'
p1434
g3
sS'@indian_defence russia supports indias sco membership bid lavrov ht/ dlvi44dj4p #india'
p1435
g3
sS'like good offe. offers help india generation aircraft carrier ht/www indiandefenccoforums/indian defencindustr32740-us-offers-help-india-next-generation-aircraft-carriehtml#.ujq_zu9eoce.twitter @indian_defence'
p1436
g3
sS'nasa joins instagram stunning moon pictures ht/ dlvi3wqqvw #india'
p1437
g3
sS'osintjournal daily report ht/ papeltheosintjourna 1326056383 stories today @terrorismwatch @stratsoc @indian_defence'
p1438
g3
sS'new uav sensor better situational awareness ht/ dlvi3q8bty #world'
p1439
g3
sS'benefits #nato @indian_defence army test dutch antmine ht/ dlvi3ywyr0 #world "'
p1440
g3
sS'true rt @indian_defence snowden dead apparent suicide ht/ dlvi3r4x7j #world "'
p1441
g3
sS'@indian_defence feel necessity sides'
p1442
g3
sS'military coup toppling j&k government indian defence review ht/www indiandefencereviecofromilitary- couto-toppling-jk-governmenukaxiilo2ks.twitter'
p1443
g3
sS'bridge irish sea amazing plans ht/ dlvi3pqfr0 #india'
p1444
g3
sS'indian defence accounts service probationers mukherjee ht/ wmp2xbeazm'
p1445
g3
sS'indian railways crosses 180 kh speed mathurpalwal route congratulations @sureshpprabhu & hope commercial run near futur'
p1446
g23
sS'india china bdca unexplained indian defence review ht/www indiandefencerevieconews/indichi nbdca-unexplaineuocwbisbm4e.twitter'
p1447
g3
sS'indian defence news india gets miltary transport heavylifter ht/ fmvsge0gcw'
p1448
g3
sS'14 rt @indian_defence ht/ dlvi3vzhhg #world'
p1449
g3
sS'gun @indian_defence long range land attack projectile passes qualification tests ht/ dlvi43rlt6 #world "'
p1450
g3
sS'@indian_defence indian government wants peace talks pakista!'
p1451
g3
sS'rt @indian_defence irish navy selects kelvin hughes radar #world ht/ olppkkg'
p1452
g3
sS'l k advani vs narendra modi social media funniest tweets ht/ dlvi3ytdzf #india'
p1453
g3
sS'@indian_defence lol nasa shut'
p1454
g3
sS'rt @indian_defence iran rejects indias plea rupee payment oil import ht/ dlvi43j7ky #india "'
p1455
g3
sS'return haji pir pass 1965 myth reality indian defence review ht/www indiandefencereviecospotlights/ret urof-haji-pir-pass-in-1965-myth-and-the-realituh3vq9efaxa.twitter'
p1456
g3
sS'@indian_defence golds temples national property bigger national interes'
p1457
g3
sS'glorious indian defence forces ranges agni ii iii,v ht/ fm227tdtd2s'
p1458
g3
sS'cii defence & aerospace industry directory details 400 indian defence companies know details ht/www ciipublicationdet aiaspenpox2sz6ezqxjeanbzccbya74svwxkjtlzrjczw+e7tfwmvkj4i7fuki9gwb/qiima2ya2h6bonied5pguqftg0wanumyimkfywsxuehglofi51ioe/jefzah643uqzpmglvcrrv5vvlcrikl+tpyteps3xkweyt/lhhisspfx645lv5bqy/4bs1orb6x'
p1459
g40
sS'indian railways trial talgo train achieves target speed 180 kmph htt/ youtbzt_prsxdowo @youtube'
p1460
g23
sS'insight iraq kurds reach baghdad fight surging al qaeda ht/ dlvi3pvkn5 #world'
p1461
g3
sS'da da ding nike ad women athletes delight guess kind honor indian sports women htt/ youtb1uvpz8fd4b8'
p1462
g11
sS'@indiaspeakspr @military_indian @indian_defence @nations_choice @sameeratweeter @aamaadmiparty pitwitter.couymvrkfs1h'
p1463
g3
sS'@indian_defence gave explanation 4 ht/www navminavydata/nav_l egacasi174'
p1464
g3
sS'chins. military ties grow countries eye sea ht/ dlvi43l1db #china'
p1465
g3
sS'"rt @indian_defence japan nuclear free reactor switched ht/ dlvi3ytx6y #world "'
p1466
g3
sS'chinpakistan double trouble india indian defence review ht/www indiandefencerevieconews/chinpak istadouble-trouble-for-indiumsum7xck3q.twitter'
p1467
g3
sS'indian daily ht/ papelbrijesh_h/1315 929455 stories today @valwagoner @indian_defence'
p1468
g3
sS'15 lakh houses built urban poor prime minister ht/ dlvi3yjdmx #india'
p1469
g3
sS'brilliant read rt @indian_defence 1971 war russia sank nixons gunboat diplomacy ht/ dlvi49jhgw #india'
p1470
g3
sS'guardate chi parla di #mar > rt @indian_defence italian marines refuse come india deposition ht/ dlvi3qq378 #india'
p1471
g3
sS'pathetic indian electors & governments >>>> saurabh kalia case indian defence .. ht/ fm3nyxgceyl'
p1472
g3
sS'anonymous officer 16 cav inside story samba attack indian defence review ht/www indiandefencerevieconews/thinsid story-of-samba-attacukurklozglk.twitter'
p1473
g3
sS'superstar rajinikanth join bjp ht/www indiandefenccoforums/nationa politic32474-superstar-rajinikanth-join-bjhtml#.ujr_5mzb9ni.twitter @indian_defence'
p1474
g3
sS'ploughshares swords india fund growth indian defence companies pour money bottomless mnreg'
p1475
g3
sS'bangladesh honours indian defence minister decades liberation war bangladesh ht/ gogfb/jynqy'
p1476
g3
sS'#airforce day lecture iaf wings indian #defence wing commander retd h r parthasarth.. ht/ fm33utuiwpt'
p1477
g3
sS'triple whammy terrorist threat south india indian defence review ht/www indiandefencerevieconews/triplwh ammterrorist-threat-to-south-indiujuezwo2qqk.twitter'
p1478
g3
sS'important officials indian defence security 1 chief army staff general bikram singh 2 chief ai.. ht/ fm3nmchz4mo'
p1479
g3
sS'#bangladesh honours indian defence minister ht/ wmp3jsbc5a #abdulhamid #sheikhhasina #vkkrishnamenon'
p1480
g3
sS'@indian_defence w....accept salute javan'
p1481
g3
sS'#globalinterests @indian_defence say nuclear arms race pakistani defence analyst ht/ dlvi4c0hmc #pakistan "'
p1482
g3
sS'text border defence cooperation agreement india china ht/ dlvi4bmdng #india'
p1483
g3
sS'evolution indian submarine arm indian defence review ht/www indiandefencerevieconews/evolution of-the-indian-submarine-arug-kmzwebhg.twitter'
p1484
g3
sS'#weapon #underseacommunication @indian_defence china launches firsever deep uv laser device ht/ dlvi3yjcjv #china "'
p1485
g3
sS'@indian_defence stupid juvenile law india changed'
p1486
g3
sS'pakistan dismantle jehad machine indian defence review ht/www indiandefencereviecospotlights/pak istawill-never-dismantle-its-jehad-machinumkhb-8jkfm.twitter'
p1487
g3
sS'outgoing indian defence attach meets secretary outgoing indian defence attach captain sumeet kapoor pa.. ht/ bil1b3zpgb'
p1488
g3
sS'" @indian_defence twitter supercharging jihadist recruitment ht/ dlvi3pyqyp #world @sanjay_uvach'
p1489
g3
sS'@indian_defence work defence industry exports avinash chander ht/ dlvi3ybvls #india ..interesting'
p1490
g3
sS'military coup toppling j&k government indian defence review ht/www indiandefencereviecofromilitary- couto-toppling-jk-governmenukkcvu4v4yw.twitter'
p1491
g3
sS'lca amca fgfa mean indian defence ht/ bil1fefps1'
p1492
g3
sS'@indian_defence nation share skylines slums gdp real measure growth human development index'
p1493
g3
sS'maleechapartheid continues rt @indian_defence india refuses visa pak team champions league twenty20 ht/ dlvi3xtfng #india "'
p1494
g3
sS'chinese coming indian defence review ht/www indiandefencerevieconews/chinesa rcominuht3egeahuq.twitter @shivaroor @rahulkanwal'
p1495
g3
sS'@indian_defence better comparison arjun'
p1496
g3
sS'happy dasher. @military_indian @indian_defence @indians4israel pitwitter.coozezvoebky'
p1497
g3
sS'rt" @indian_defence india building better border infrastructure trade bangladesh ht/ dlvi3xwkdn #india "'
p1498
g3
sS'infiltration j&k happen o knowledge pak army says indian defence minister ak antony @newindianxpress'
p1499
g3
sS'unreliable officers unreliable command chain #readitall @indian_defence unreliable british officers ht/ dlvi3vmnmr #world "'
p1500
g3
sS'@indian_defence headlines pakistan militants prepare war afghanistan active support government'
p1501
g3
sS'dear god using tanks neutralise fidayeen attacker-the inside story samba attack indian defence review ht/www indiandefencerevieconews/thinsid story-of-samba-attacukrs_hkyqfw.twitter'
p1502
g3
sS'rt @indian_defence rahul gandhi trolled wankhade video shows people chanting modmodi came ht/ psslg4mr #india'
p1503
g3
sS'military discipline recast officer cadre indian defence review ht/www indiandefencereviecomilitardisci plinrecast-officer-cadrunkx41rvrxm.twitter'
p1504
g3
sS'china pakistan want demilitarization siachen indian defence review ht/www indiandefencereviecowhchina-and- pakistawant-demilitarization-of-siacheuj_6ionrcc0.twitter'
p1505
g3
sS'@indian_defence indian fisherman jihadis posing indian fisherme?'
p1506
g3
sS'coming terrorist attack syria iran wwiii ht/www indiandefenccoforums/worla ffair3211coming-terrorist-attack-syria-iran-wwiihtml#.ui2qlvbtfjg.twitter @indian_defence read'
p1507
g3
sS'@samarjeet_n new delhi mice roar indian defence review ht/www indiandefencerevieconews/nedelhi mice-cant-roaug4riyextqy.twitter best courageous article rea'
p1508
g3
sS'rank pension obligation fulfilled indian defence review ht/www indiandefencerevieconews/onrank- onpension-an-obligation-to-be-fulfilleujb3hwelgiu.twitter'
p1509
g3
sS'@military_indian @indian_defence @indians4israel sindh u ignore pitwitter.cocjfoqouhdg'
p1510
g3
sS'@indian_defence omar abdullah given copy book vocal hanging gur'
p1511
g3
sS'used play chess lot crap id try kings indian defence love saying'
p1512
g3
sS'bharat verma chinks indias security indian defence review ht/www indiandefencerevieconews/bharave rmon-chinks-in-armour-in-securituhaokwwcxpa.twitter'
p1513
g3
sS'nice @indian_defence chopper saves chopper iaf m17 v5 airlifts crashed pawan hans ht/ dlvi3vkswx #india "'
p1514
g3
sS'wars china sure fight 50 years indian defence review ht/ m1agktio'
p1515
g3
sS'@indian_defence glowing review mirage 2000 ht/ hushkiwordpress.co2013/10/03/int erviewith-a-lightning-pilot-part-1'
p1516
g3
sS'@indian_defence 22 need use radar s35 radar big target does 2'
p1517
g3
sS'liked @youtube video ht/ youtbd2mxx0ssd9a nimzo indian defence'
p1518
g3
sS'fools .. @indian_defence nawaz sharif given time salman khurshid ht/ dlvi4d79m1 #india'
p1519
g3
sS'mod scuttled proposal permanent chairman chiefs staff committee indian defence review ht/www indiandefencereviecospotlights/mod scuttled-the-proposal-for-a-permanent-chairman-of-chiefs-of-staff-committeunzkxhhcaqo.twitter'
p1520
g3
sS'military given raw deal pay indian defence review ht/www indiandefencereviecohathe-milita rbeen-given-a-raw-deal-on-the-pay-fronuiswtn48bj8.twitter'
p1521
g3
sS'elimination taliban leaders benefit afghanistan pakistan newspapers ht/ dlvi4jz8tt #world'
p1522
g3
sS'uss kearsarge replenishment sea timelapse video ht/ dlvi4bmdnv #india'
p1523
g3
sS'#transformingindia 163yrthe indian railways friday introduced train engine fitted toilet pitwitter.cor5la1ifzuo'
p1524
g23
sS'@indian_defence @leopard212 called italy ki taraf se india ko theng'
p1525
g3
sS'delay light combat aircraft project indian defence minister tells drdo ht/ gogkqnzey like franco told almudena builder'
p1526
g3
sS'#respect rt @indian_defence know brave regiments indian army ht/ dlvi41hzk9 #india "'
p1527
g3
sS'epic news rt @indian_defence afghanistan beat pakistan 0 friendly football match held kabul ht/ dlvi3qphjf #world'
p1528
g3
sS'bangladesh honours indian defence minister inserbia news decades ht/ gogfb/lwhux'
p1529
g3
sS'danger china indian defence review ht/www indiandefencerevieconews/thdange from-chinuhint9xatm8.twitter'
p1530
g3
sS'mao attacked india 1962 indian defence review ht/www indiandefencerevieconews/maoretu rto-power-passed-through-india'
p1531
g3
sS'#royalnavy #royalfleetauxiliary supply ship @indian_defence marmultpurposair-launchedrocketsystem ht/ dlvi3w5vcf #world "'
p1532
g3
sS'speaking ads group indian defence offset market conference today londo'
p1533
g3
sS'10 ways suresh prabhled #indianrailways preparing #monsoon season ht/www financialexprescoindinews/10- waysuresh-prabhu-led-indian-railways-preparing-monsoon-seaso315538/v4c9zn_8vmu.twitter @sureshpprabhu @manojsinhabjp'
p1534
g23
sS'@indian_defence u2 rescue plane draws indias world attention ht/ dlvi412gjc'
p1535
g3
sS'decoding burhan wani kashmir unrest indian oppression blame ht/ disut/2ae6un3'
p1536
g40
sS'indian politicians infatuated liquor till @indian_defence ju amused namo tea ht/ dlvi44zgt5 #india'
p1537
g3
sS'@indian_defence indian navy gets biggest offshore patrol vessel ht/ dlvi3vl1zv #india ins sunayana .. smthing nav.'
p1538
g3
sS'myth versus ht/ dlvi3xf52j #india'
p1539
g3
sS'#annaforpm !! rt @indian_defence narendra modi rahul gandhi fit pm anna hazare ht/ dlvi3rb2gc'
p1540
g3
sS'@indian_defence hmm expect dawood captured nepal border soon'
p1541
g3
sS'8 suspected pak nationals held ht/ dlvi49zcyx #india'
p1542
g3
sS'@kushagra_india @gulpanag @indian_defence target ex gen lt court martialed land scam #politics'
p1543
g3
sS'pakistan indias neighbor indian defence review ht/www indiandefencerevieconews/pakistan musnot-be-indias-neighboukvjwi68vhk.twitter'
p1544
g3
sS'indrussia joint military exercise indra indian defence review ht/www indiandefencereviecomedia/indrus similitary-exercisuoe3byhkeae.twitter'
p1545
g3
sS'military drill looms large intekorea talks ht/ dlvi3pvkmd #world'
p1546
g3
sS'uk ministry defence 2bn scandal thousands troops sacked ht/www indiandefenccoforums/s-eur op3444uk-ministry-defence-%a32bn-cash-pile-scandal-thousands-troops-sackehtml#.ulmghk7iwlo.twitter @indian_defence'
p1547
g3
sS'pakistan releases 30 indian fishermen ht/ dlvi4cdd2h #india'
p1548
g3
sS'going 60000 soldiers afghanistan april 2014 wake indian defence department #upa #inc #india #namo'
p1549
g3
sS'happy independence day air warriors indian defence personnel'
p1550
g3
sS'china stresses goal stronger military ht/ dlvi3srs4p #china'
p1551
g3
sS'18f4 rt @indian_defence ht/ dlvi4l3dw9 #world'
p1552
g3
sS'@indian_defence @musakhanjalalza author paid writer knowledge strategic landscape south asia'
p1553
g3
sS'indian defence service #great2haveyou country true indians eart'
p1554
g3
sS's2 rt @indian_defence taiwan navy launches s2 missile drill eas.. ht/ dlvi42qq2d #world'
p1555
g3
sS'exactly narendra modi meant indian defence force ht/ dailbhaskar.coarticle/nato what-exactly-did-narendra-modi-meant-by-secular-indian-defence-force-4376271-nohtml'
p1556
g3
sS'afghanistan making numerous inroads indian half indian defence looking sloppy #saff2013'
p1557
g3
sS'@janamejayan lka delhi insider team shud win time @viraathindu1 @indian_defence @prema_raghavan @swamy39'
p1558
g3
s.