(dp1
S'#news #india india defence export hub manohar parrikar says times india ht/ ol8nkn501n7im'
p2
S'defence'
p3
sS'senate fails pass amendment boost india s defence sales ht/ ift28juzmz'
p4
g3
sS'india imports defence related equipments today come fdi defence .. threat national securit'
p5
g3
sS'senate rejects recognise india major defence partner bhakhts talking abt modi foreign policy ht/ ibtimes.co.iusenate-reje ctbill-recognise-india-major-defence-partner-682879'
p6
g3
sS'india allows 100% fdi defence govt approval & stories daily newsletter day commerce ht/ nzzuiyjwiak'
p7
g3
sS'india bolsters defence ne orders push pla case enter indian territory ht/ indiatoday.istory/indiaa rmsino-indian-border-arunachal-pradesh-chin1/70775html'
p8
g3
sS'india s fdi rules overhaul fdi rules aviation defence relaxed tightened single brand retail ht/www livemincopolitics/ky5zx qg0dtmlyd2k1r4djgovannounces-major-overhaul-of-fdi-rulehtml'
p9
g3
sS'100% fdi defence yay #makeinindia make india mean developed india got design germany & labour india'
p10
g3
sS'@daimfazil @umarcheema1 @proud_khaaki minister defence india chiefs pitwitter.cotsnvyym1vc'
p11
g3
sS'india export missile systems friendly nations according defence ht/ gogfb/nhfq6z'
p12
g3
sS'potential defence cooperation papua new guinea india htt/ lnkie7aqf3e'
p13
g3
sS'burnishing indus relations india access 99% defence technologies #transformingindia ht/ economictimeindiatimes.coarticleshow/52 92346cmutm_sourccontentofinterest&utm_medium=text&utm_campaign=cppst'
p14
g3
sS'retweeted amit shah @amitshah induction india fighter jet #tejas great leap defence .. ht/ fm5wkrr8kjl'
p15
g3
sS'@jhasanjay omg 00% fdi defence gov approval nda hell bent selling republic sovereignty india cong protest'
p16
g3
sS'india thailand forge close ties defence maritime ndtv ht/ dlvilb70ny #thailand'
p17
g3
sS'#modiministry fdi reforms govt unshackled defence make india manufacturing hub ht/ ift28khhqy'
p18
g3
sS'"interpreting fdi liberalisation defence sector india htt/ lnkibuh5puc @rahulbhonsle @linkedin'
p19
g3
sS'govt relaxes fdi norms civil aviation defence pharma ht/ msn.co01/ein/aahkq tocist rising hopes make india possibilities'
p20
g3
sS'100% fdi good india aviation defence'
p21
g3
sS'australia india acquire poseidon boeing antony ruined defence acquisition htt/ twittecoindiatvnews/st atu749085803184140288'
p22
g3
sS'india  female fighter pilots pave way women combat ht/ newtrust.oritem/201606221 0071opxwj #women #defence pitwitter.co0lti0cmdhb'
p23
g3
sS'#discussing does india s defence production need brahmolike projects ht/ awaremoncouser/singlepos 55397 pitwitter.colrjdektb6m'
p24
g3
sS'defence collaborations bet india israel india tesfires surfacto-air missile chandipur ht/ newsablasianetnews.tindia/indite sfires-surface-to-air-missile-from-chandipur'
p25
g3
sS'india access 99% defence technologies says official ht/ toibp3vpb'
p26
g3
sS'fdi reforms defence civil aviation pharma fillip indius bilateral potential htt/www thedollarbusinesconews/fdrefor mto-push-indiaus-trade-usib47060'
p27
g3
sS'#quiz developing india s capabilities aerospace & defence manufacturing joint venture bee.. ht/ fm78nvxqeco'
p28
g3
sS'wow govt india okays 100% fdi defence aviation commerce'
p29
g3
sS'aap doing nautanki bw india access 99% defence technologies white house official hindu ht/www thehindconews/national/ article877559ece'
p30
g3
sS'rss logic swedish defence major saab keen partner india version lca tejas i.. ht/ fm17ud9mp3n'
p31
g3
sS'defence analysts policy makers harping twfront" war china pak dishonest india  interests #foreignaffairs'
p32
g3
sS'ht/ lik5d8m india set super power @narendramodi leadership & @manoharparrikar defence minister #glowhome'
p33
g3
sS'india access defence tech ht/ litimesnowmobile congrks'
p34
g3
sS'@tehlkanews govt army page army straight fwd defence policy pm dictated america india afghan pm trika'
p35
g3
sS'dna india defence firms scanner sanjay bhandari links ht/www dnaindicoindia/repord efencfirms-under-scanner-for-sanjay-bhandari-links-2228103'
p36
g3
sS'us$ 250 billion size #defence industry india 10 yrs anil ambani marathon begin sector'
p37
g3
sS'india access 99% defence tech ht/ shrticlgqvwrj72 @inshorts'
p38
g3
sS'#india #national pakistan wants dialogue gun pointed india  forehead defence expert ht/ ift29j2eod'
p39
g3
sS'nsg membership important india institute defence studies analyses ht/www idsiidsacomments/w his-nsg-membership-important-for-india_asajjanhar_210616v3uub17h5eg.twitter'
p40
g3
sS'tired #pakistan  ending blamgame time pakistani defence secretary alleged #india interfering 2'
p41
g3
sS'india successfully test fires surfacto-air missile developed israel defence base odisha jai h.. pitwitter.copwc8v9rqbd'
p42
g3
sS'india uzbekistan agree step u.. india uzbekistan thursday took note growing defence c.. ht/ bil28zm5ec'
p43
g3
sS'namoindiapm rt sunilsinghbjp india access 99% defence technologi ht/ twitteconamoindiapm/st atu746967010601402368 pitwitter.cokas1wfjswu'
p44
g3
sS'2 days seminar india defence shipbuilding united employees federation mazgaon dock #bks @authackeray pitwitter.coflq2tj8q9y'
p45
g3
sS'@narendramodi defence fdi 100% 1 create jobs easy arms supply 2 kill india isro tejas penetrate security @ajit_dobhal'
p46
g3
sS'government taken big step defence sector increasing fdi make india export hub ani quotes manoharparrikar'
p47
g3
sS'opening fdi defence compromising national security comment stupiit looks like india great defence tec'
p48
g3
sS'defence acquisition council chaired manohar parrikar discuss shopping list saturday ht/ ift28se33b #topnews #india'
p49
g3
sS'india eases foreign equity norms defence aviation retail ht/ fm55o8ccttt'
p50
g3
sS'ifsc codstate bank india delhi delhi defence colonsbin0001709 ht/ bankifsccodeco.in ht/ bankifsccodeco.istate_bank_of_ indidelhi/delhi/defence_colony #ifsccode'
p51
g3
sS'@manoharparrikar siu r excellent defence minister #india r missing u #goa'
p52
g3
sS'india s defence production needs brahmolike projects ht/ liswarajyamag.co defe/8kx7w'
p53
g3
sS'defence daughters fifth story series veterans india stories read htt/www faceboocoveteransofindi astorieposts/1713704625534330 pitwitter.coamyhe4qka8'
p54
g3
sS'india defence export hub #manoharparrikar ht/ economictimeindiatimes.conews/defence/i ndito-be-made-defence-export-hub-manohar-parrikaarticleshow/5292981cms #zippednews ht/www zippednewcomanohaparrik ar'
p55
g3
sS'#transformingindia pm modi calls strong defence maritime ties india thailand ht/www newindianexpresconation/pmodi calls-for-strong-defence-maritime-ties-between-india-thailan2016/06/17/article348717ece pitwitter.cortjgi3zpyz'
p56
g3
sS'#modiministry india access 99% defence hindu business line ht/ ift28w06t1'
p57
g3
sS'instead expanding defence sector india workshoslave factory global defence companies htt/ twittecothewire_in/sta tu744831150519107584'
p58
g3
sS'interestin. support rajan defence arvind india  loss bjp gainthe economic times mobile ht/www ecotiojrobb'
p59
g3
sS'senate fails pass amendment boost india s defence sales ht/ ift28kli0k'
p60
g3
sS'india  defence supplier ht/ timesofindiindiatimes.coworld/uis-in diatop-defence-suppliearticleshow/5302192cms pitwitter.cobh1z7btxaa'
p61
g3
sS'ht/ ndtcom news manohar parrikar says india defence export hub ht/ bil2920cnc'
p62
g3
sS'@sanjayuvacha 100% fdi defence cos make india sell pakistan modiji @gops333 htt/ twittecojhasanjay/stat u744896279067693056'
p63
g3
sS'govt allows 100% fdi defence aviation sectors ht/ bil28ibgvb #fdi'
p64
g3
sS'india fast track critical defense deals including 400 defense ht/www defencenewiarticle/india tfast-track-critical-defense-deals-including-s-400-defense-system-6205 pitwitter.co8pjg60ugjv'
p65
g3
sS'india prempts brexit bears new fdi policy 100% fdi sectors incl defence aviation pharm'
p66
g3
sS'liked @youtube video @indiandefence47 ht/ youtbjpk3tproqva bsf india  line defence documentary national'
p67
g3
sS'china woos south asia india remains wary indian defence review ht/ licom/yhboj'
p68
g3
sS'modi approves 100 cent fdi defence aviation nsg great wall china beijing says india'
p69
g3
sS'senate fails pass amendment boost india s defence sales ht/ ift28imxbb'
p70
g3
sS'poses big threat national security & india s independent foreign policy defence minist.. ht/ bil1vvrpmb'
p71
g3
sS'anonymous recently lawmakers approved defence according india acquired status nato'
p72
g3
sS'" #india offers #afghanistan defence cooperation ht/www pajhwocoen/subscriptio required'
p73
g3
sS'defence wellness make india opening india  shores opportunities here snapshot ht/ newsablasianetnews.tindia/kishalay bhattacharjee-column9'
p74
g3
sS'exactly opposition #fdi 100% defence india just slave agai'
p75
g3
sS'india eases fdi aviation defence singlbrand retail ht/ epapednaindia.costory.aspid 85047&boxi217535&ed_date=20106-21&ed_code=1310016&ed_page=1'
p76
g3
sS'said making india strategic defence partner . happy . that worrying . scary'
p77
g3
sS'#chutiyananakagrandson india good defence establishment v got freedom zero nana @officeofrg htt/ twittecoofficeofrg/sta tu746370146479050752'
p78
g3
sS'senate fails pass amendment boost india s defence sales ht/ ift1wwzera'
p79
g3
sS'maritime security india thailand forge close ties defence maritime india thailand today decided .. ht/ bil1wra6cx'
p80
g3
sS'india allow 100% foreign ownership defence civil aviation sectors guardian ht/ oll1wg301rxg5 #aviation'
p81
g3
sS'#defence defence ministry #india buy 145 ultra light howitzers ht/ toisea3xb'
p82
g3
sS'india s air defence achieves hatrick ht/ deshgujaraco2016/07/01/ind iaair-defence-system-achieves-a-hat-trick'
p83
g3
sS'defence india country outside formal treaty allies access 99% def tech ht/ googleweblighclite_urhttp /timesofindiindiatimes.com/india/indito-get-access-to-99-of-us-defence-technologies-says-us-official/articleshow/52924280.cms&edwfp3t7h&lc=en-in&s=1&m=546&host=www.google.co.in&ts=1467004701&sig=akovd67v3urdoroaidnf63fftt0nqsv4aq'
p84
g3
sS'india israel mediurange missile successfully tesfired ht/ defencbloconews/india-isr aemedium-range-missile-was-successfully-test-firehtml pitwitter.coqcu81xf0co'
p85
g3
sS'@kartikeyatanna @officeofrg @timesofindia defence minister italians mafia gang looted india scams pitwitter.cofkj7cnbaqr'
p86
g3
sS'india  air defence achieves hatrick ht/ economictimeindiatimes.conews/defence/i ndiaair-defence-system-achieves-a-hat-tricarticleshow/5301307cms'
p87
g3
sS'entire defence mechanism india specific india poses threat pakistan #dgisprinberlin'
p88
g3
sS'india access 99% defence technologies says obama administration official ht/ ift28yuejt'
p89
g3
sS'india access 99% s. defence technologies white house official ht/ dlvilfyp4n'
p90
g3
sS'pay pension & sloth eat india  defence funds pitwitter.comu2rdxgics @hindurajyam @sagenaradamuni @sv99999'
p91
g3
sS'india joins coveted mtcr export missiles giving boost indigenous defence sector #modiwinsmtcr'
p92
g3
sS'india successfully demonstrated integration cruise missile brahmos s30 ht/ defencbloconews/brahmos-a erospacsuccessfully-demonstrated-the-integration-of-cruise-missile-brahmos-on-su-30mkhtml pitwitter.coyy8jdsspst'
p93
g3
sS'dtn aviation india considers additional 3unit hawk buy india s defence ministry considering acqui.. ht/ bil28uw0ld'
p94
g3
sS'#india aviation defence singlbrand retail key sectors opened indian express ht/ gogfb/jkufhq'
p95
g3
sS'india thailand forge close ties defence cyber security economy image prime minister narendra modi .. ht/ bingei1xtwjll'
p96
g3
sS'india  batch women fighter pilot commissioned today new delhi defence minister manohar parrikar .. ht/ bil1wsfvup'
p97
g3
sS'usa accepts india important partner defence proud namo making national security priority #modiwinsmtcr'
p98
g3
sS'defence narendra modis aggressive nsg bid mtcr success received attention india .. ht/ bil29fk2mk'
p99
g3
sS'india access 99 cent defence tech official ht/www ndtcoindinews/ind ito-get-access-to-almost-99-per-cent-us-defence-tech-official-1423578 @ndtv'
p100
g3
sS'parrikar eyes rs 1lakh crore defence purchases ht/ ift28nlknh #india'
p101
g3
sS'importing 100% defence req great fdi manufacture india politicians & journos shd heads examined'
p102
g3
sS'pm modi ditches cm modi fought selling india foreigners allows 100% fdi defence civil aviation perils office'
p103
g3
sS'india thailand boost defence ties indian express ht/ indianexprescoarticle/india/ indinews-indiindia-thailand-to-boost-defence-ties-2859804/'
p104
g3
sS'@imtmassn delegation visits @theamrc discusses british expertise #india  growing market #aerospace #defence pitwitter.cood6eodesgr'
p105
g3
sS'#newsalert poses big threat national security & india s independent foreign policy defence minister ak antony #fdi'
p106
g3
sS'@pankajmishra23 means modi & party stopped india  progress decade manmohan opposing fdi & open defence to.'
p107
g3
sS'india access 99% defence technologies 1% left kejriwal use party'
p108
g3
sS'cnbtv18 l&t defence fdi relaxation help bring better technology india l&t 14970 82% #bigfdipush'
p109
g3
sS'india access 99% defence technologies says blockbuster deal @narendramodi ht/ toibp3vpb'
p110
g3
sS'big bang reforms finally india relaxes #fdi foriegn direct investment norms civil #aviation defence pharma sector'
p111
g3
sS'#india access 90% usa defence technology says toi great news nawaz sharif ht/ timesofindia.coindia/indito get-access-to-99-of-us-defence-technologiearticleshow/5292428cms'
p112
g3
sS'allowing 100 % fdi defence sector means india  defence sector thrown hands natamerican-ak anton'
p113
g3
sS'india country outside treaty allies gain access 99% america defence technologies ht/www economictimeconews/defence/i ndito-get-access-to-almost-99-of-us-defence-technologies-says-obama-administration-officiaarticleshow/5292346cms'
p114
g3
sS'latest india news ht/ tinyurcohjdn97b defence logistics pact hits implem.. ht/ tinyurcoz72vogy pitwitter.co4rmcdomtp7'
p115
g3
sS'indius defence security cooperation analysi.. ht/ idrorindius-defen csecurity-cooperation-analysis'
p116
g3
sS'#india eases foreign equity norms defence aviation retail ht/ bil28inrkf #business @nsitharaman pitwitter.conxiigddyrm'
p117
g3
sS'afghan india  support strengthening defence capabilities syed akbaruddin ht/ bil28mooay pitwitter.coeulxucxcsc'
p118
g3
sS'india spend $750 million artillery guns secure border china #defence #bhivelabs ht/ dlbedpju'
p119
g3
sS'narendra modi govt allows 100% fdi defence & aviation wake rexit ht/www indiasamvaco.ibusiness/naren drmodi-govt-allows-100-fdi-in-defence-aviation-in-wake-of-rexit-14403 pitwitter.co2otesafwyt'
p120
g3
sS'wrong 100% fdi defence make india outsiders better importing defence equibuloot b possible'
p121
g3
sS'govt india developed unmanned airships defence purposes manned airships civilian transport ht/ dlbeeaw5'
p122
g3
sS'defence minister si. poor india fighting battle terrorism territory origin pakista'
p123
g3
sS'india advances #madeinindia new foreign investment rules ht/ gogz0mcsy #aviation #defence #pharma pitwitter.cofutktkgsyv'
p124
g3
sS'india today make india emerging entrepreneur awards defence realm buyer .. india toda.. ht/ bil29iqfvg'
p125
g3
sS'india  defence sector boom new startup sector come #makeinindia #startups #indianeconomy'
p126
g3
sS'india ge chief hydrographer miadhu defence ministry gai mashvaraa bahdhaluvumeh baavvaifi htt/ mndgov.mmndf/newsnew si2327 pitwitter.coeiq05ergnb'
p127
g3
sS'badruddeen rt badruddeen #maldives opposition seeks active role india defence aviation post ht/ defenceaviationposcomaldiveoppos itioseeks-active-role-india'
p128
g3
sS'press release rm hands varunastra torpedo indian navy defence minister shri manoha.. ht/ fm7m2vzyqrq'
p129
g3
sS'good development hal useful indian defence clearly showing r following make india htt/ twittecondtv/status/74 3799283292372992'
p130
g3
sS'senate doesnt approve amendment recognising india defence partner ht/ liwww.dawn.com/n ewehfnf'
p131
g3
sS'fdi reforms push uindia trade ties usibc widened scope fdi norms defence civil aviation .. ht/ bingei28pugsb'
p132
g3
sS'india eases foreign equity norms defence aviation retail print media govt scared indian sharks print medi'
p133
g3
sS'india access 99% defence tech ht/ shrticlgqvwrj72 @manoharparrikar @deptofdefense @mpparimal pitwitter.coi2f1mrhuc5'
p134
g3
sS'brexit does matter india institute defence studies analyses ht/ idsiidsacomments/b rexidoes-it-matter-for-india_mathew-simon_170616v2uw67wdgue.twitter'
p135
g3
sS'note today india allows 100 % fdi defence civil aviation feminism stupidity fully desi htt/ twittecomadhukishwar/s tatu745251235951894533'
p136
g3
sS'varun_thacker rt varun_thacker india access 99% defence tech ht/ twittecovarun_thacker/ statu747100530611208192 pitwitter.co7sbfpz9yi1'
p137
g3
sS'india access 99% s. defence technologies white house official #denial ruled ou?? ht/www thehindconews/national/ article877559ece'
p138
g3
sS'insights daily debates day 228 100 percent fdi defence good india ht/www insightsonindico2016/06/21/ins ightdaily-debates-day-228-100-percent-fdi-defence-not-good-india'
p139
g3
sS'indian express india defence ministry nod buy 145 ultra light howitzers ht/ indianexprescoarticle/india/ indinews-indidefence-ministry-manohar-parrikar-us-howitzer-artillery-2875799/'
p140
g3
sS'@manoharparrikar hon defence minister india read #thefourpatriots gave valuable inputs pitwitter.cowooidblnu2'
p141
g3
sS'india export hub defence products reduces imports apart fro ht/ timesofindiindiatimes.coindia/indito be-made-defence-export-hub-manohar-parrikar-sayarticleshow/5292980cms'
p142
g3
sS'100% fdi help india realising dream selreliance defence sector ht/www businesstandarcoarticle/econom policassocham-lauds-government-s-decision-to-relax-fdi-norms-in-key-sectors-116062000591_html nmapp'
p143
g3
sS'#lcatejas fighter boost strength iaf push india selfdependent defence technology pitwitter.cotgg4ccs6cx'
p144
g3
sS'allowing 100 % fdi defence means india  defence sector thrown hands natamerican defence manufacturer'
p145
g3
sS'100% #fdi defence 30% drop #foreignfunding #india ask @nfi_delhi @monicabanerjee1 ht/ newsablasianetnews.tindia/kishalay bhattacharjee-column9'
p146
g3
sS'jai hind 100% fdi defence aviation & insurance etwill boost economy establish india defence equipment producer supplier'
p147
g3
sS'letter comes fortnight india recognised major defence partner ht/www thequincohowire/2016/ 022/tavoid-2611-repeat-india-seeks-us-drones-for-maritime-security'
p148
g3
sS'india thailand sign key pacts boost economic defence ties ht/www hightrendinf2016/06/india thailansign-key-pacts-to-booshtml pitwitter.coixp3s6jmsa'
p149
g3
sS'#india #defence #logistics indian dac clears 145 m777 howitzers $750 million ht/www defenseworlnenews/16439/ind ian_dac_clears_145_m777_howitzers_for__750_million__reviews_several_other_schemesv3cxqpl97iu'
p150
g3
sS'india defence export hub manohar parrikar'
p151
g3
sS'rt kanchangupta big bang fdi reforms defence dth retail india open economy fdi 10 key tak ht/www abpliviindinews/big bang-reforms-10-key-fdi-norms-relaxed-365686'
p152
g3
sS'commission overview country #trade defence actions eu india china, usa steel products leading ht/ tradec.europa.edoclib/docs/20 1june/tradoc_15463pdf'
p153
g3
sS'3 govt woo dozen defence cos world set 51% subsidiaries india year @etdefence'
p154
g3
sS'senate approve amendment recognizing india defence partner #courtingthelaw #strategicdefencepartner ht/ courtingthelaco2016/06/24/new eventus-senate-doesnt-approve-amendment-recognizing-india-as-defence-partner/'
p155
g3
sS'india nsg 2013 approaches indian membership institute defence studies analyses ht/www idsiissuebrief/ind iaandnsg_gbalachandran_230513v26dobqczce.twitter'
p156
g3
sS'live india carved argentina defence open sweeping ended ramandeep fouling .. ht/ bil29f19ol'
p157
g3
sS'maritime security indius defence security cooperation analysis end usa kept ma.. ht/ bil28voupf'
p158
g3
sS'#union public service commission upsc india national defence academy nav ht/www consumecourco2016/06/union- publiservice-commission-upshtml pitwitter.cogyfmp2f6ud'
p159
g3
sS'fdi reforms push uindia trade ties usibc widened scope fdi norms defence civil aviation .. ht/ bingei28nbant'
p160
g3
sS'defence ministry paved way buying 145 howitzerit boost india  attack capability higher altitudes #transformingindia'
p161
g3
sS'intolerant news pakistachina india access 99% defence technologies'
p162
g3
sS'airbus defence &amp'
p163
g3
sS'china come forward help india nsg bid defence expert ht/ dlvilgswrg pitwitter.comu0pdzvbsn'
p164
g3
sS'pm modi calls strong defence maritime ties india thailand ht/www newindianexpresconation/pmodi calls-for-strong-defence-maritime-ties-between-india-thailan2016/06/17/article348717ece nmapp pitwitter.comllhrbbotl'
p165
g3
sS'defence imports 20% parrikar times india ht/ toitmab87/a18cg @timesofindia'
p166
g3
sS'#india #thailand agree close defence maritime cooperation ht/www dtnexinews/national/ 20106/17213051/indithailand-agree-for-close-defence-maritime-cooperatiovpf pitwitter.cosgswvhwpak'
p167
g3
sS'47 nations india china man standing nsg bid indian defence news ht/ fm478ukujsq'
p168
g3
sS'india  entry mtcr boost india  defence export20 years line india b weapons exporters #modiwinsmtcr'
p169
g3
sS'australian defence recruits forced rape inquiry daily news &analysis htt/ indbreakinwordpress.co2016/06/22/aus traliadefence-recruits-forced-to-rape-each-other-inquiry-daily-news-analysis'
p170
g3
sS'institute defence services analyses bangladesh shares 4096 km international border india o.. ht/ fmypo0e6lq'
p171
g3
sS'retweeted defence news @defence _news nehru refusal kennedy offer nuclear detonation kept india ou.. ht/ fm19qqfldh8'
p172
g3
sS'senate fails pass amendment boost india s defence sales ht/ ift1uwf3lu'
p173
g3
sS'ends 0 half time india putting strong defence #hct2016'
p174
g3
sS'india joins missile tech control regime member #india #defence ht/www btvicoarticle/read/b anner_stor6234/indijoins-missile-tech-control-regime-as-full-member @bloombergtvind'
p175
g3
sS'india thailand forge close ties defence cyber security economy image prime minister narendra modi .. ht/ bingei1zwhj8y'
p176
g3
sS'#southblock pm office ministry defence ministry external affairs #delhi #india pitwitter.co9z98onhoqi'
p177
g3
sS'irctc signs pact defence food research lab field food technology times india ht/ toidhunmb35/a18cg @timesofindia'
p178
g3
sS'india tesfires new surfacto-air missile developed jointly israel defence base odisha coast pti pitwitter.coxc4t6kdhfl'
p179
g3
sS'boost india `s indigenous defence capabilities president drdo ht/ ift295bbgg #nationalnews zeenews'
p180
g3
sS'congrats @isro good 2 coperation india & @israel areas research technology defence htt/ twittecoddnational/sta tu748388566066208768'
p181
g3
sS'india developed laser guided bomb sudarshan india  laser guided bomb ht/ dlvilcyydc pitwitter.condewfjh3kz'
p182
g3
sS'fdi strengthen india s defence sector indian defence forces capable building firewalls ensure countrys securit'
p183
g3
sS'ht/ ift28zozlr india access 99% s. defence technologies white house official #worldnews'
p184
g3
sS'revamp defence offsets policy push make india book review ht/ ol5ny8501lzzo'
p185
g3
sS'india allow 100% foreign ownership defence civil aviation sectors ht/ fliibe82k'
p186
g3
sS'defence needed urgent tranformation doer modi got reluctant parrikar jo'
p187
g3
sS'stars stripes india  women fighter pilots commissioned defence minister manoha.. ht/ usa.go1uhk3i7 #military'
p188
g3
sS'proud 1st women fighter pilots & proud india big salute indian defence officers staff !! htt/ twittecothekiranbedi/s tatu744018561190993924'
p189
g3
sS'arnab usual used shrill putting chouhan nift post administrative india  defence secy ias'
p190
g3
sS'defence deals happen overnight says parrikar times india ht/ wnncodefencdeals- dnot-happen-overnight-says-parrikar-times-of-indutm_sourcdlvit&utm_medium=twitter #wnn7'
p191
g3
sS'president #india congratulates #drdo successful tesfiring #mrsam ht/ gogwe0yf7 #military #iaf #missile #defence'
p192
g3
sS'india access 99% defence technologies says official ht/ toibp3vpb @timesofindia'
p193
g3
sS'latest india news ht/ tinyurcohjdn97b govt opens civil aviation defence bi.. ht/ tinyurcoj5wpvul'
p194
g3
sS'@defence _in india collaborates israel create test ballistic missiles #advancedindia #powerfulindia ht/www ptableco.iindia-and-isra ejointly-test-fire-surface-to-air-ballistic-missile-in-oriss34642/'
p195
g3
sS'france imposes new conditions rafale deal india ministry defence procurement official said .. ht/ defwji9i5027zq8'
p196
g3
sS'mentor commandos india shifuji shaurya bhardwaj teaches unarmed combat self defence .. ht/ fm2a1gd157p'
p197
g3
sS'hosting session defence india arms #indiafirst qs 4 panelists fm drdo mod sme & defence mnc'
p198
g3
sS'india  ministry defence mod issued letter request lor united states 17 june procure 2.. ht/ fm7vw6uit1l'
p199
g3
sS'india access 99% defence tech ht/ timesofindiindiatimes.coindia/indito get-access-to-99-of-us-defence-technologies-says-us-officiaarticleshow/5292428cmutm_sourcdlvr.it&utm_medium=twitter'
p200
g3
sS'president pranab asks drdo boost india s indigenous defence capabilities ht/ reahbhnu pitwitter.coj0ldkbmnwd'
p201
g3
sS'#bejon i.. comparing retail fdi defence fdi . thinks india d expertise defence mfg like retail @thenewshour'
p202
g3
sS'indian express india terrorists neighbours sit counter defence ht/ indianexprescoarticle/india/ indinews-indigulberg-society-massacre-sit-defence-terrorism-2846447/'
p203
g3
sS'super star works like way doing making india  defence day day @hindurajyam @motupataluji @tjain2016 htt/ twittecomanoharparrika status/744185385153003520'
p204
g3
sS'words wanted eserviceman india s defence minister ht/ blogeconomictimes.indiatimes.coandwordsisalli havwantean-ex-serviceman-as-indias-defence-minister/'
p205
g3
sS'india access 99% defence technologies ht/ gogcr2tvj'
p206
g3
sS'clause serve fdi defence india better condition story ht/ thewiri44235/fdin-d efencthe-chicken-and-egg-cycle-may-not-end-soon'
p207
g3
sS'characteristically clear defence india  inflation fight raghuram rajan high bar successor htt/ rbidocrbi.org.irdocs/speeches pdfs/pr29533a11c296335d44bdbb14db24a696042pdf'
p208
g3
sS'super cool india gets access 99 cent defence tech ht/ dhuni1gefi pitwitter.co3luy4g1exr'
p209
g3
sS'india access 99% defence technologies india country outside formal treaty .. ht/ bil291ywsq'
p210
g3
sS'india  leap unorganiseoffline organizeonline offline incumbents using regulations defence ht/www medianamco2016/06/22on linpharmacies-industry-body'
p211
g3
sS'pay pensions sloth eat india  defence .. ht/ idrorpapensions-s loteat-indias-defence-funds'
p212
g3
sS'senate doesnt approve amendment recognising india defence partner ht/www dawconews/1265365 #nationalshamemodi'
p213
g3
sS'india mtcr club export arms likely boost make india initiative defence sec@mpparimal ht/ thehindubusinessline.conews/indijoi nmtcr-as-full-membearticle877935ece'
p214
g3
sS'india clears deal buy 145 artillery guns bae systems india  defence procurement agency cleared .. ht/ bil28wwz5i'
p215
g3
sS'allowing 100% fdi defence sector means india  def sector thrown hands natamerican def manufacturers ak antony'
p216
g3
sS'india recognized major defence partner 99 % access defence technologies ht/www eyesaffaicoindirecogniz emajor-defence-partner-99-access-us-defence-technologies pitwitter.co6ylqzqlcos'
p217
g3
sS'@narendramodi india opens for100% fdi defence economic free flowinjob creation @sinhapune @matribhumisevak htt/ twittecotimesnow/statu 744834137547149312'
p218
g3
sS'hcl deploys defence communication network india ht/www infotechleacobpo/hcdeploy defence-communication-network-india-40812 #hcl'
p219
g3
sS'dhanush 155mm artillery gun make india marvel indian defence review ht/ licom/oe1g8'
p220
g3
sS'major defence partner american military industrial complex infects india ht/ bil297adob'
p221
g3
sS'india access 99% defence technologies white house official hindu ht/ dlvilfcplp #yugvani'
p222
g3
sS'india hurry enter defence foundational pacts ht/ ol6o4l501cklo'
p223
g3
sS'india tesfires new surfacto-air missile defence base odisha coast ht/ indianexprescoarticle/india/ indinews-indiindia-test-fires-new-surface-to-air-missile-from-defence-base-off-odisha-coast-2884889/'
p224
g3
sS'#india #defence export hub @manoharparrikar ht/ ecotirxqbzz pitwitter.cowcbqzkcgsk'
p225
g3
sS'latest india news ht/ tinyurcohjdn97b india  integrated defence communicat.. ht/ tinyurcozjjatz2 pitwitter.coj2m97ywykb'
p226
g3
sS'defence ministry clears mega purchase howitzers dhanush artillery guns buy list ht/ ift28xnhab #topnews #india'
p227
g3
sS'india thailand forge close ties defence potato security economy image prime minister narendra modi .. ht/ bingei1yy3vty'
p228
g3
sS'india eases foreign equity norms defence aviation retail ht/ moneylifiarticle/india easeforeign-equity-norms-for-defence-aviation-retai4723html @suchetadalal'
p229
g3
sS'senate fails pass amendment boost india s defence sales ht/ ift28jrrum'
p230
g3
sS'govt relaxes fdi norms aviation defence'
p231
g3
sS'manohar parrikar says india defence export hub ndtv htt/ indbreakinwordpress.co2016/06/27/man ohaparrikar-says-india-to-be-made-defence-export-hub-ndtv'
p232
g3
sS'lauding progress bilateral military cooperation india pentagon says looking forward growth defence ties'
p233
g3
sS'india mod hawk deal corner ht/ dlvilfnyzy'
p234
g3
sS'rt rashtrapatibhvn nation proud achievement & looks drdo make greater efforts boost india s defence capabilities'
p235
g3
sS'india  defence strong china wall india vs australia #chakdeindia #indvaus #championstrophy #hockey #finals'
p236
g3
sS'latest india news ht/ tinyurcohjdn97b 100% fdi defence need hour venka.. ht/ tinyurcohntwror'
p237
g3
sS'modi 50 foreign tripforeign investmnt dropped 80us rejects make india defence partner india nsg #failedmodidiplomacy'
p238
g3
sS'india thailand build linkages" fields #defence r&d joint production ht/ gogtpsxhm'
p239
g3
sS'bhagat singh believe self defence died india  independence burhan wani believe islamic violence htt/ twittecosardesairajdee status/751784776055529472'
p240
g3
sS'global defence players israel russia europe set make beeline india ht/ defencenewiarticle.aspi 6140'
p241
g3
sS'india  defence expenditure 56 billion dollars fifth highest world india toppe.. ht/ fm1ahewihya'
p242
g3
sS'#defence 100% fdi intake sector india #france #russia #israel #usa excited #japan #germany ht/ timesofindiindiatimes.cobusiness/india businesbig-reforms-government-introduces-100-fdi-in-defence-civil-aviation/articleshow/5283140cms'
p243
g3
sS'great @narendramodi #india needs supplier #defence equip large global buyer @makeinindia htt/ twittecoetdefence/stat u747316072240451588'
p244
g3
sS'new post agni v crucial india  defence capabilities defence analyst uday bhaskar published ht/ gogiuihqj'
p245
g3
sS'look #india joining mtcr affect india  modernization & industry programs ht/ quwor2016/06/29/ind imtcr-part-1 #defence #news'
p246
g3
sS'india access 99 cent defence tech official it important development ht/ liwww.ndtv.com/i ndi3wddf'
p247
g3
sS'india allow 100% foreign ownership defence civil aviation sectors ht/ fliigoyfz'
p248
g3
sS'senate fails pass amendment boost india s defence sales ht/ ift28ihzrr'
p249
g3
sS'pay #pensions sloth eat india  #defence funds ht/ ecoti7uotjy pitwitter.coj4ssmkppeb'
p250
g3
sS'india access 99% defence technologies says official ht/ timesofindiindiatimes.coindia/indito get-access-to-99-of-us-defence-technologies-says-us-officiaarticleshow/5292428cms @timesofindia'
p251
g3
sS'latest india news ht/ tinyurcohjdn97b india access 99% defence te.. ht/ tinyurcoj9lamgz pitwitter.cohpbzp5zemu'
p252
g3
sS'99 ht/ gogfrxibk #india #defence #technology #global #us'
p253
g3
sS'latest pak wants dialogue gun pointed india  forehead defence expert business .. ht/ bil29dqyuz #indiannews'
p254
g3
sS'100% fdi defence ensure availability cutting edge tech army & boost local manufacturing ht/www livemincoindustry/mqtrp lsdky1d0yugnvfygwhadoes-100-fdi-in-defence-meahtml'
p255
g3
sS'timesofindia india access 99% defence technologies says official ht/ toibp3vpb htt/ amtwimg.cov/98c7ccbb97 4e0e-adca-a1cbc1e75170'
p256
g3
sS'#brahmos armed #sukhoi #su30mki bad news india s enemies @defence _news #avgeek ht/www defencenewiarticle/whth brahmos-armed-sukhoi-is-bad-news-for-india%e2%80%99s-enemies-6320 pitwitter.coiykmuwfcjv'
p257
g3
sS'department national defence microsatellite launched india ht/ olmpa2501enog'
p258
g3
sS'@defence _news pm india deserves bes'
p259
g3
sS'latest india news ht/ tinyurcohjdn97b defence ministry concludes deal larsen .. ht/ tinyurcozy9652a pitwitter.covupyir49ni'
p260
g3
sS'senate rejects recognise india major defence partner ht/ fm7sugqxjrl'
p261
g3
sS'payet credits france defence ht/ bil28pd2vm'
p262
g3
sS'india tesfires new surfacto-air missile developed jointly israel defence base odisha coast pti pitwitter.cocc8kd5fdum'
p263
g3
sS'proud succesful missile test boost india s defence president mukherjee drdo ht/ indianexprescoarticle/india/ indinews-indiproud-of-succesful-missile-test-fire-boost-indias-defence-president-mukherjee-to-drdo-2887765/ @indianexpress'
p264
g3
sS'india access 99% defence technologies says obama administration official ht/ ecotipbf1hz'
p265
g3
sS'#india stocks #aviation #spicejet 6% #realty #unitech 96% #defence #rdel 4% #fmcg #emami 7%. #sugar #dhampur 3% #energy #ongc 8%'
p266
g3
sS'#india #national expert calls seeks pm modi intervention defence production upgrade ht/ ift29kkzob'
p267
g3
sS'100% fdi defence help india arms producer ht/www indiandefencerevieco10fdi-in-def enccan-it-help-india-become-an-arms-producev3njh-9nbjk.twitter'
p268
g3
sS'chinese incursion pla bomber j7 violates india  airspace aksai chin ht/www defencenewiarticle/anothe chinese-incursio-plas-bomber-jh-7-violates-indias-airspace-in-aksai-chin-6117 pitwitter.cofrgrp4dh1c'
p269
g3
sS'big reforms government introduces 100% fdi defence civil aviation times india ht/ fm5wt2zpo5p'
p270
g3
sS'india access 99% s. defence technologies white house official ht/ gogfb/zzdosa'
p271
g3
sS'defence base chandipur odish india tesfires new surfacto-air missile developed jointly israe'
p272
g3
sS'anthony destroyed india  defence sector 10 years upa rule htt/ twittecotimesofindia/s tatu744883498587021313'
p273
g3
sS'brahmos armed sukhoi bad news india s enemies ht/www defencenewiarticle/whth brahmos-armed-sukhoi-is-bad-news-for-india%e2%80%99s-enemies-6320 pitwitter.cotxptpfmg9h'
p274
g3
sS'pm modi calls strong defence maritime ties india thailand #kudospm4nsgpush pitwitter.co9ofw8qgdnr'
p275
g3
sS'aftereffect pm visius senate hs denid pass necesry amdmnt recognise india global strategic & defence partner @_lokeshsharma'
p276
g3
sS'senate fails pass amendment boost india s defence sales ht/ ift28ivdwd'
p277
g3
sS'india accused nurturing n korea weapons scientists ht/www defencenewiarticle/india accuseof-nurturing-n-koreas-weapons-scientists-6144 pitwitter.coicyr2asfsy'
p278
g3
sS'minute 20 india 4 15 romania india starting romanian defence #wuchandball2016 #indvsrou'
p279
g3
sS'india gain access 99 cent latest america defence technologies recognised defence partner'
p280
g3
sS'bolstering defence preparedness india buy defence technologies says official ht/ thewiri46110/indica buy-almost-all-defence-technologies-now-says-us-official @thewire_in'
p281
g3
sS'india opens defence sector 100% fdi defence notesread shephardmed....21st june 2016 133b.. ht/ bil28rf9is'
p282
g3
sS'#news #india india tesfires new surfacto-air missile defence base odisha coast indian exp.. ht/ olddd1501uvfj'
p283
g3
sS'" india thailand explore defence industry collaboration htt/www googlcourrcj&sa=t &urht/wwjanes.com/article/61604/indiand-thailand-explore-defence-industry-collaboration&ct=ga&cd=caiygjuxmgm3zdnlmte3odm4ztk6y29tomvuolvt&usg=afqjcnenelslmchb56g3sion_3d-6bvpvg #defensenews #feedly'
p284
g3
sS'senate fails pass amendment boost india s defence sales ht/ ift1smbzzb'
p285
g3
sS'led raj babbar mps abandon tolevel defence briefing times india ht/ toipezrib/a18cg @timesofindia'
p286
g3
sS'india ge chief hydrotheraper rajjey ge defence chief aa bahdalu kohfi htt/ avam19041 pitwitter.coagjszib2pc'
p287
g3
sS'mag @frontline_ india doing premptive defence #rte mont'
p288
g3
sS'modis new confident india gets major shot arm defence sector htt/www excelfundcoindex.php/all insightitem/55modi-s-new-and-confident-india-gets-a-major-shot-in-the-arm-for-its-defence-sector pitwitter.coxngvxgpkn4'
p289
g3
sS'successful #lcatejas integrated #defence communication net launch #india expects indigenous advanced weaponry pitwitter.copzfybdrqzd'
p290
g3
sS'#lcatejas finally makes flight india  defence it probably awaited longest flight took 33 year'
p291
g3
sS'wha? rejects make india defence partner cares #worldwinnermodi got 72 claps & 9 standing ovations #failedmodidiplomacy'
p292
g3
sS'senate refuses grant india strategic defence partner status htt/www googlcourst&rct=j &&esrc=s&source=web&cd=5&cad=rja&uact=8&ved=0ahukewjq_7uk_nahvgox4khfgldnaqqqiisdae&url=http%3a%2f%2fthebricsposcom%2fus-senate-refuses-to-grant-india-strategic-defence-partner-status%2f&usg=afqjcne5yfwqxg6o-i-0rc02io81warnia&sig2=n8y1syprsrmzpje8xkpooa'
p293
g3
sS'poland vs portugal euro 2016 live football score it pol defence vs cristiano ronaldo ht/ gogfb/uoxwx3'
p294
g3
sS'fdi defence expose india external threats air chief marshal rtd s krishnaswamy ht/www thedollarbusinesconews/fdin-de fencwill-not-expose-india-to-external-threat8425'
p295
g3
sS'wanted eserviceman india s defence minister heard india s defence preparedn.. ht/ bingei29syy3c'
p296
g3
sS'bayern begin bundesliga title defence werder bremen ht/ bil29o7xdg'
p297
g3
sS'rm addresses unified commanders conference new delhi defence minister shri manohar parrikar stresse.. ht/ fm4szx3t29t'
p298
g3
sS'retweeted praveen swami @praveenswami afghanistans defence ministry says pakistani madrasas producin.. ht/ fmddsmwafb'
p299
g3
sS'dawn pakistan senate doesnt approve amendment recognising india defence partner ht/www dawconews/1265365/u senate-doesnt-approve-amendment-recognising-india-as-defence-partner'
p300
g3
sS'expect rise defence export #modiwinsmtcr china mind india export brahmos misile vietnam ht/ toimx9paa'
p301
g3
sS'nehru india unsc member global power ht/ newsmilitarcos/dqnhk @defence _news'
p302
g3
sS'india access 99% defence technologies official meaning india dumyard lot american cra'
p303
g3
sS'whn communist atul anjan bats india import defence equipment frm usa make india #secualritis'
p304
g3
sS'retweeted indian defence wire @theindiantalks india opposed pakistan membership nuclear supplier.. ht/ fm4sppk8zla'
p305
g3
sS'people afghanistan trust india pakistan ht/ newsmilitarcos/wjmkn @defence _news'
p306
g3
sS'100% fdi defence corporations create wars escalate tensions sell weapons ht/ fm7hayaisxc'
p307
g3
sS'rt @newsoffdi govt #india allows 100% #fdi #defence #aviation sectors ht/ olieaz501yt1p'
p308
g3
sS'#india india thailand forge close ties defence maritime ndtv ht/ gogfb/pm7bqn #topstories'
p309
g3
sS'mr talamoni india just showed u love&has allowed 100% fdi defence govt approvasstop whining htt/ twittecosaurabhjoshi/s tatu744808471585951744'
p310
g3
sS'defence partnership india htt/ lnkie89_we8'
p311
g3
sS'@shekhargupta sir defence mech sharp smell come droves wet weather common india brown marmorated stinkbug'
p312
g3
sS'best defence attack population rose india pak bang hindu population fallen @ htt/ twitteconavbharattimes status/744168824832831488'
p313
g3
sS'@lockheedmartin india  chief executive phil shaw talks #makeinindia & plans aerospace defence & ht/ bil29evpri'
p314
g3
sS'george fernandes saheb said long ago defence minister #china #india  real enemy pakista #chinaexposed'
p315
g3
sS'nearly india  defence architecture set generous loans armament soviet unio'
p316
g3
sS'india israel military ties headache pakistan china ht/ newsmilitarcos/ywvu7 @defence _news'
p317
g3
sS'latest india news ht/ tinyurcohjdn97b india access 99% defence te.. ht/ tinyurcoj9lamgz pitwitter.cofro2zp0hak'
p318
g3
sS'india access 99% defence technologies wait watch 1% important election issue aap congres'
p319
g3
sS'india  integrated #defence communication network launched today ht/ fexiuum239766 pitwitter.coziz6lvoywo'
p320
g3
sS'hacker news india access 99% s. defence technologies ht/ ift28zozlr'
p321
g3
sS'defence minister @manoharparrikar rightly stated india afford pain death soldiers what wrong'
p322
g3
sS'thats great statement time @manoharparrikar defence minister india htt/ twittecoani_news/statu 747072061894496256'
p323
g3
sS'#breakingnews india  defence communication network goes live ht/www redifconews/report/in diafirst-defence-communication-network-goes-liv2016063htm'
p324
g3
sS'pakistan news indian defence minister blames pakistan attack india held kashmir ht/ fm2glreqvgr'
p325
g3
sS'india  defence procurement agency buy 145 m777 ultra lightweight howitzer artillery guns #bae systems ht/ bil28tl7n8'
p326
g3
sS'amu1650 offered india projec75i best submarines rubin ceo indian defence htt/ lnkie6izwjv'
p327
g3
sS'concrete steps taken make #india export hub #defence make selrelianrm @manoharparrikar pitwitter.codk6rrczvdr'
p328
g3
sS'spicejet rel defence biocon 8% govt ups fdi limit ht/ dlvilc6vjg #stock #tip #india'
p329
g3
sS'major defence partner american military industrial complex infects india good sco ht/ 21stcenturywirco2016/06/27/maj odefence-partner-american-military-industrial-complex-infects-india'
p330
g3
sS'india thailand defence cooperation ht/ shrtifogkmxin1s @inshorts'
p331
g3
sS'india client relationship russia purely defence & invest russia sector like foodstuffs pharma secto'
p332
g3
sS'incredible pace great defence awesome goal keeping plenty wasted penalty corners & gritty team india match way india'
p333
g3
sS'@manoharparrikar ticks @drdo_ india ht/ gogrofxk4 #defence #ofb'
p334
g3
sS'major defence boost india gets indigenous torpedo pitwitter.cobf6oekvqrz'
p335
g3
sS'wit making india it preferred defence project b revived @narendramodi @manoharparrikar htt/ twittecoidrwalerts/sta tu746555408437805057'
p336
g3
sS'parrikar agrees defence land bengaluru city infrastructure projects htt/ twittecokiranks/status 751459737217200129'
p337
g3
sS'burnol moment modi haters india access 99% #us defence technologies obama administration officia'
p338
g3
sS'india clears proposal purchase 145 ultra light howitzers 8 dhanush artillery guns defence m.. ht/ bil28yngol'
p339
g3
sS'senate fails pass amendment boost india s defence sales ht/ ift28moacv'
p340
g3
sS'india access 99% defence technologies says obama administration official eco.. ht/www ecotiau1iyy'
p341
g3
sS'india sell missiles friendly nations says defence minister manohar ht/ businessworliarticle/india tsell-missiles-to-friendly-nations-says-defence-minister-manohar-parrika18-06-2016-99326/'
p342
g3
sS'india thailand explore defence industry collaboration ihs jane 360 ht/ gogfb/th6okk'
p343
g3
sS'senate fails pass amendment boost india  defence sales ht/ ift1wv02se'
p344
g3
sS'india gets access 99% defence tech white house official #indonordicassociation org ht/www thehindconews/national/ indito-get-access-to-almost-99-of-us-defence-technologies-wh-officiaarticle877559ece pitwitter.co4n5qffwetk'
p345
g3
sS'india eases foreign equity norms defence aviation retail sectors create jobs jobs jobs #fdi ht/www sundayguardianlivconews/540indi eases-foreign-equity-norms-defence-aviation-retail-sectors'
p346
g3
sS'homegrown #lcatejas fightenow iawill make india defence exporter&reduces dependence imported jets pitwitter.co7izkhhpqxv'
p347
g3
sS'latest india acquires litening targeting pod ht/ bil292x0b9'
p348
g3
sS'defence sales india buy thno salesman object buying status potential buyer htt/ twitteconitinkashyap_/ statu743280391767875584'
p349
g3
sS'senate doesnt approve amendment recognising india defence partner ht/www dawconews/1265365/u senate-doesnt-approve-amendment-recognising-india-as-defence-partner'
p350
g3
sS'indian express india pak sees 211 masterminds national assets says defence expert ht/ indianexprescoarticle/india/ indinews-indipak-sees-2611-masterminds-as-national-assets-says-defence-expert-2887158/'
p351
g3
sS'india  batch women fighter pilots commissioned new delhi defence minister manohar parrikar forma.. ht/ bil1v3jzvd'
p352
g3
sS'india access 99% defence technologies says american official washington india .. ht/ bingei28u6jwt'
p353
g3
sS'@cuspoidal main sectors opened defence brownfield pharma think boost india'
p354
g3
sS'ht/ defenceaviationposcorafaldeal-pr icnegotiations-still-underway-parrikar @manoharparrikar @spokespersonmod @defencereview @defence _news @makeinindia @followcii @ficci_ india'
p355
g3
sS'india thailand deepen maritime defence ties building strong shared cultural heritage prime m.. ht/ bingei1w4i2q0'
p356
g3
sS'government allows 100% fdi scheduled airlines defence'
p357
g3
sS'china difficult foil india  nsg bid defence expert ht/ chilid7a16ac #news #breakingnews'
p358
g3
sS'govt vows make india defence export hub ht/www defencenewiarticle.aspi 6272'
p359
g3
sS'modi forge closer partnership thailand defence maritime cooperation new delhi india in.. ht/ bil1wrhuew'
p360
g3
sS'initiative @makeinindia india start production defence tools home soil pitwitter.cobrhyub7ogv'
p361
g3
sS'indian armed forces india s integrated defence communication network ht/ dlvilhmmyw'
p362
g3
sS'#china comes india s defence wto debate ht/www livemincopolitics/ypgzj murzw8apkoabx0zvchincomes-to-indias-defence-in-wto-debathtml @sushmaswaraj @nsitharaman @jayantsinha @rabhishek1982 @dasshaktikanta'
p363
g3
sS'let man mission dr kalam disciple india  leading defence writer blogs tarmak007 w.. ht/ fm18gmxtff0'
p364
g3
sS'potential defence cooperation papua new guinea india institute defence studies analyses ht/ dlvilgtzwz'
p365
g3
sS'india open economy world says modi 100% fdi defence ht/ gogsfy7ri @shareaholic'
p366
g3
sS'#india access 99% #us defence technologies says official ht/ toiw3btay36 @timesofindia htt/ amtwimg.cov/98c7ccbb97 4e0e-adca-a1cbc1e75170'
p367
g3
sS'china silk road initiative india ht/ fm4oisjlmjh'
p368
g3
sS'@sanjay_dixit sir question u india allowed use 99% usa defence tech sir destroy r &d defence'
p369
g3
sS'#india eases foreign equity norms defence aviation retail ht/www northeasttodaiindieases-fo reigequity-norms-for-defence-aviation-retail'
p370
g3
sS'new post major defence partner american military industrial complex infects india ht/www brotherjohncomajodefence- partneamerican-military-industrial-complex-infects-india'
p371
g3
sS'decision 100% fdi defence good india  defence sector opinion #india #fdi #defence'
p372
g3
sS'india access 99% s. defence technologies white house official hindu ht/www thehindconews/national/ article877559ece'
p373
g3
sS'fdi norms pharma 74% civil aviation 100% defence sector 100% eased india open economy fdi pitwitter.cofqixs7re8t'
p374
g3
sS'@marwaditweeter @drgarekar russian defence material supply india india supplies food'
p375
g3
sS'india access 99% defence tech catastrophic failure govt #failedmodidiplomacy ht/www ecotiau1iyy'
p376
g3
sS'defence expert pk sehgal india need alert nsg membership ht/ dlvildrt9k'
p377
g3
sS'times indianew delhi defence minister manohar parrikar formally commissioned india  wome.. ht/ fm2cefrinss'
p378
g3
sS'@miramjadalik @timesnow @pmoindia large defence corporations make like humvee india mrf tyres'
p379
g3
sS'yes usa minorities prez vp guv chief justice defence chief it just like india @joydas pitwitter.coo01spqomkn'
p380
g3
sS'india  1st integrated defence communication network gomilitarin #jai_hind ht/ fm4gp5cngbm'
p381
g3
sS'@virenrasquinha india brilliant defence today minutes man india better #hct2016'
p382
g3
sS'honorable defence minister india sri monohar parikar ji endorsing horn ok air force acade.. ht/ fm1lepbrlp3'
p383
g3
sS'pm modi calls strong defence maritime ties india thailand ht/www newindianexpresconation/pmodi calls-for-strong-defence-maritime-ties-between-india-thailan2016/06/17/article348717ece nmapp pitwitter.cosnbhu5tkdg'
p384
g3
sS'latest defence jobs india recruitment notification ht/www blogtopsitecop/29288991'
p385
g3
sS'bsf india s line defence documentary national geographicpar1 ht/www youtubcowatcfeature player_embedded&jpk3tproqvy ht/ topdocumentarienebsindias-fir sline-of-defence-documentary-by-national-geographic-part-1'
p386
g3
sS'100% fdi expected seeing 2 years traineresponse make india showing defence sector'
p387
g3
sS'india double entry visa thai nationals increase defence cooperation india thailand fri.. ht/ bil1udsxjp'
p388
g3
sS'merkel says germany spend defence reuters ht/ ift28mytkc #topnews #india'
p389
g3
sS'indian express india terrorists neutralised defence minister manohar parrikar ht/ indianexprescoarticle/india/ indinews-indimore-terrorists-being-neutralised-says-defence-minister-manohar-parrikar-baramulla-encounte-hal-bengaluru-2858656/'
p390
g3
sS'india test launch new jointly developed indisraeli missile tomorrow ht/www defencenewiarticle/india ttest-launch-a-new-jointly-developed-indo-israeli-missile-tomorrow-6319 pitwitter.codk28itp06m'
p391
g3
sS'watch bollywood india come defence s #disgusting htt/ twittecoindependent/st atu745299659258798080'
p392
g3
sS'@sanjayuvachacomment defence murders retaliation referring india  secular credentials shaky'
p393
g3
sS'india buy defence technologies says official ht/ bil291fema'
p394
g3
sS'double blow .. ussr defence equipments india import the. htt/ twittecos_navroop/stat u747643225515692033'
p395
g3
sS'india opening defence sector 100% fdi bold imaginative step fastrack india  emergence strong military power congrats pm modi'
p396
g3
sS'defence sector sold private hands govt india shows unqualified run countr'
p397
g3
sS'india thailand deepen maritime defence ties prime minister narendra modi thailand counterpart .. ht/ olj8k7501upg0'
p398
g3
sS'senate fails pass amendment boost india s defence sales ht/ ift21qzayl'
p399
g3
sS'india access 99% defence tech ht/ shrticlgqvwrj72 @inshorts india'
p400
g3
sS'commerce minister pm intention make india manufacturing hub defence sector'
p401
g3
sS'@mulamutha doctor spirit taking entire responsibility defence india shines bhau reply abdali'
p402
g3
sS'defence news travelling obama style : modi new air india flying fortress dodge missiles ht/www defencenewiarticle/travel linobama-style--modis-new-air-india-one-will-be-flying-fortress-that-can-dodge-missiles-6122'
p403
g3
sS'hindu india access 99% s. defence technologies white house official ht/ gogfb/gwquef'
p404
g3
sS'big reforms government introduces 100% fdi defence civil aviation times india ht/ gogfb/w7ybrr'
p405
g3
sS'added video @youtube playlist ht/ youtbmjht289ifua hearts iron 4 india e10 siam defence'
p406
g3
sS'central govt india permitted 100% #fdi #defence govt approval route @pmoindia #transformingindia'
p407
g3
sS'"department national defence microsatellite launched india htt/www googlcourrcj&sa=t &urht/ottawacitizecom/news/national/defencwatch/department-of-national-defence-microsatellite-launched-from-india&ct=ga&cd=caiygjuxmgm3zdnlmte3odm4ztk6y29tomvuolvt&usg=afqjcnfswukqcafhj4nva5zjac_hacez_w #defensenews #feedly'
p408
g3
sS'pm modi calls stronger defence maritime ties india thailand ht/ linewindianexpre sco5384p nmapp'
p409
g3
sS'india double entry visa thai nationals increase defence cooperation ht/ fm1kloumzf4'
p410
g3
sS'construction begins india s new regional jet facility joint venture jv india s reliance defence u htt/ lnkif7cqmrd'
p411
g3
sS'#hct2016 bacto-back saves sreejesh india defence rock solid india 0 australia live ht/ indianexprescoarticle/sports hockey/indivs-australia-live-champions-trophy-final-hockey-live-streaming-video-link-2859449/'
p412
g3
sS'india s defence production needs brahmolike projects ht/ swarajyamacodefence/indias defence-production-needs-many-more-brahmos-like-projects pitwitter.coimzjwdatyi'
p413
g3
sS'india thailand forge close ties defence maritime economic times ht/ ecotiirxolz'
p414
g3
sS'pay pensions sloth eat india  defence funds economic times mobile ht/www ecotinjtwgz'
p415
g3
sS'indian defence minister blames pakistan attack india held kashmir new delhi indian defen.. ht/ bil292hwlj #fari khan'
p416
g3
sS'raising defence fdi 100% india benefit ht/ liwww.youtube.co qpei4 @youtube ht/ fm1bi1rrgxv'
p417
g3
sS'#whitehouse #wh india access 99% defence technologies white house'
p418
g3
sS'sco news india determined expedite defence procurement #procurement @manoharparrikar ht/www supplychainonlinco.uarticle/india determineto-expedite-defence-procurement pitwitter.cojrk8awt6uo'
p419
g3
sS'defence daughters fourth story veterans india stories visit htt/www faceboocoveteransofindi astories pitwitter.colqfmya59k2'
p420
g3
sS'#pajhwok india offers afghanistan defence cooperation 22 june 2016 kabul pajhwok ind.. ht/ bil28vujty #afghanistan'
p421
g3
sS'dedicated communication network inaugurated defence forces ht/ fm7ucohfg1r'
p422
g3
sS'indonesia additional contract pkr opv heavy frigate contender dari denmark dan india { defence pk}'
p423
g3
sS'defence greater clarity control & ownership foreign oems begin make india ht/ olt1fz501znys'
p424
g3
sS'india defence export hub says defence minister manohar parrikar pitwitter.co7a8hj65zb1'
p425
g3
sS'india export missile systems friendly nations manohar parrikar defence minister manohar parrikar tal.. ht/ bingei1zwqubs'
p426
g3
sS'defence 100% fdi security concern #kejriwaldaresmodi dont sell india'
p427
g3
sS'govt relaxes fdi norms defence aviation &pharma clears way4 apple 2 open stores india ht/ ecotitoipba #unstoppable modi'
p428
g3
sS'@ppatel108 @gsurya condition access statof-the-art technology india removed defence ...'
p429
g3
sS'@salmannizamii modi acheivements foreign tours 0100 #us rejects make india defence partner #india nsg'
p430
g3
sS'power defence maiden flight fav suko30 mki integrated brahmos successful that make india warning enemie.'
p431
g3
sS'defence ministry gives nod purchase 145 ultrlight howitzers times india ht/ toiwyieoz/a18cg @timesofindia'
p432
g3
sS'#india galloping defence leadership hon pm chiefs conjunction drdo htt/ twittecomanoharparrika status/748135655524339712'
p433
g3
sS'india final stage agreeing aircraft carrier technologies ht/ dlvilbjn1l'
p434
g3
sS'retweeted defence news @defence _news india acquire 22 maritime patrol predator guardian uav.. ht/ fm7dmx7rcbc'
p435
g3
sS'india s @narendramodi visits mozambique energy defence agriculture coal ht/ clubofmozambiquconews/narendra modvisits-mozambique-in-july-as-india-ramps-up-its-africa-engagement @twitter'
p436
g3
sS'#bangladesh attacks attempt destabilise prindia #hasina government defence experts ht/ bil29l1rmo'
p437
g3
sS'pay pensions & sloth eat india  defence funds money gets wasted ht/ bil28kolyj @dinunarayanet pitwitter.cokuennruxlf'
p438
g3
sS'government india approves 100% fdi defence secto'
p439
g3
sS'100% fdi 4 ambanigovt allots 289 acres 2 anil ambanis ra2 b india s pvt sector defence aviation unit ht/ fm7bqrclock'
p440
g3
sS'@hemanshujoshi3 defence contractors reluctant 2 transfer tech 2 mfg equip india right 2 local opns outrighup 49%'
p441
g3
sS'100% fdi defence help india realize dream selreliance sector assocham ht/www indiawesconews/business/ businessmeindustrialists-policymakers-hail-new-rules-opening-indian-economarticle_b47591d6-38c0-11e6-bfc4-7be6d8515c1html @narendramodi'
p442
g3
sS'defence min @manoharparrikar dedicates defence #communication network dcn nation ht/ tinyurcogtkyt3h pitwitter.comirdmcunhj'
p443
g3
sS'easter vin mano following defence industries india ht/ itimecom ht/ itieicrjkz'
p444
g3
sS'cluster development policy place increase india  investment thailand number cooperation agreements defence culture n edu'
p445
g3
sS'cnbtv18 exclusive airbus group india prez amendment defence fdi policy pragmatic #big fdipush'
p446
g3
sS'economic policy reforms encourage make india defence fdi flow ht/ fm1dnglxy8c'
p447
g3
sS'make india 16s 18s hunt new range fighter jets set defence ministry movi.. ht/ bil294gyix'
p448
g3
sS'india allowed 100% defence years today announcement clarify opposed art'
p449
g3
sS'impordependence answer defence ht/ ift1ucvhif #india'
p450
g3
sS'anjaan anjaan ground realitiecommunists want india b self reliant defence'
p451
g3
sS'tata & boeing begin construction production facility a64 fuselages ht/ olf7hs301txho #india private defence industry growth'
p452
g3
sS'#india big boost economy modi govt approves 100% fdi defence civil aviation food ht/ gogfb/hc7fum'
p453
g3
sS'india s defence industry opportunity strikes world news report ein news ht/ pinterescopin/5481725858 76831313'
p454
g3
sS'india thailand sign key pacts boost economic defence ties new delhi india thailand friday d.. ht/ tinyurcoztt7ln4'
p455
g3
sS'senate fails pass amendment boost india s defence sales ht/ ift28inzwj'
p456
g3
sS'big blow congres.er pakistan india access 99% defence technologies says obama official'
p457
g3
sS'india  nsg bid way forward institute defence studies analyses ht/www idsiidsacomments/i ndia_nsg_bid_asajjanhar_270616v3iloqjupcu.twitter'
p458
g3
sS'india double entry visa thai nationals increase defence cooperation roundup htt/www googlcourrcj&sa=t &urht/timesofindiindiatimes.com/city/delhi/indito-give-double-entry-e-visa-to-thai-nationals-increase-defence-cooperation-roundup/articleshow/52800077.cms&ct=ga&cd=caiygjuxmgm3zdnlmte3odm4ztk6y29tomvuolvt&usg=afqjcnff3ldvhkmoppt4njlvdyckhvonta #defensenews #feedly'
p459
g3
sS'stupi.as importing defence equipments better having foreign firms manufacture india htt/ twittecotimesofindia/s tatu744882198617038848'
p460
g3
sS'contribute #feeburnol @trollkejri & @officeofraga >>>> india access 99% defence tech ht/ ecotia6sxya'
p461
g3
sS'senate fails pass amendment boost india s defence sales ht/ ift23hesd5'
p462
g3
sS'euro 2016 loew urges germany chances defence minded italy daily ht/ gogfb/c4fdtu'
p463
g3
sS'india tesfires new surfacto-air missile developed jointly israel defence base odisha coas'
p464
g3
sS'@timesnow dear @anandsharma_inc grow u want 100% imported defence product foreign 100% india foreign c'
p465
g3
sS'fdi policy changes improve #easeofdoingbusiness india #pharma #aviation #defence #retail #broadcasting htt/ twittecodippgoi/status 744845794751225856'
p466
g3
sS'@malinip questioned utility modi diplomacy india access 99% s. defence technologies ht/www thehindconews/national/ article877559ece'
p467
g3
sS'retweeted india radio news @airnewsalerts india  1st integrated #defence communication netwo.. ht/ fm1jxfr10ma'
p468
g3
sS'pm @narendramodi calls strong defence maritime ties india thailand ht/www newindianexpresconation/pmodi calls-for-strong-defence-maritime-ties-between-india-thailan2016/06/17/article348717ece pitwitter.coqamrcg8rgx'
p469
g3
sS'#news #india india gets access 99 cent defence tech new indian express ht/ olq8zj501njex'
p470
g3
sS'global defence players israel russia europe set make beeline india ht/www defenceupdatiglobadefence players-israel-russia-europe-set-make-beeline-india pitwitter.cojym0xuwb5p'
p471
g3
sS'retweeted vif india @vifindia raksha mantri @manoharparrikar joins rtd defence .. ht/ fm85khd6flq'
p472
g3
sS'100 cent fdi defence sector industry poised quantum leap ht/ ift28k159z #india'
p473
g3
sS'#indiausa india hurry enter defence foundational pacts ht/ dlvilcklrg leads > ht/ gogvqjise'
p474
g3
sS'pm modi emphasizes defence cooperation india & thailansays terrorism threat societies ht/www newindianexpresconation/pmodi calls-for-strong-defence-maritime-ties-between-india-thailan2016/06/17/article348717ece nmapp'
p475
g3
sS'missile built israeli help tested indian defence establishment today claimed success twi.. ht/ bil29cdro5 #india'
p476
g3
sS'monopoly indian defence sector premium india pay close tie htt/ twittecodeshgujarat/st atu746948873298518016'
p477
g3
sS'india major defence partner united states ht/ indianexprescoarticle/india/ indinews-indiwhite-house-india-a-major-defence-partner-for-united-states/ nmapp'
p478
g3
sS'india hails #fdi norms'
p479
g3
sS'ohhh yeaaaah unless it india defence #faujifambam htt/ twittecobritbit36/stat u747127683490799616'
p480
g3
sS'muller confident italy defence breached ht/ dlvilhyb82 pitwitter.cog12uvidiev'
p481
g3
sS'india access 99% #us defence technologies obama administration official ht/ gog0suavd pitwitter.cogstryudeqc'
p482
g3
sS'@digvijaya_28 make india opening fdi defence secto'
p483
g3
sS'india fast track critical defence deals including400 ht/ theresurgentindico400-deal-fas ttracked pitwitter.co5h5fxhplnh'
p484
g3
sS'#newsalert government india approves fdi 100 percent defence sector'
p485
g3
sS'india  lca tejas steals j17 developed pachina ht/ newsmilitarcos/8fntq @defence _news'
p486
g3
sS'potential defence cooperation india papua new guinea ht/ gogwmjghq strategic economic benefits'
p487
g3
sS'@ashokatluri ordnance factories medak jabalpur produce guns make india defence offsets'
p488
g3
sS'naval bara8 missiles israel india ht/ fm4k3hcemud'
p489
g3
sS'@rameezafghan worlds fastest growing economy'
p490
g3
sS'india difficulties strong romanian defence #wuchandball2016 #indvsrou pitwitter.cou9xxw50eju'
p491
g3
sS'#fdireform upto 100% defence pharma aviation securi.. #india favorite market global investor htt/ twittecosamirsinh189/s tatu745187225617367040'
p492
g3
sS'modi govt clears 100% fdi defence aviation & e commercwhat make india jugaad technology india ke sath videshiyon ka vikas'
p493
g3
sS'parrikar eyes rs 1 lakh crore defence purchases ht/ ift28o77ul #india'
p494
g3
sS'#indiausa india access 99% defence ht/ dlvilfyxpg leads > ht/ gogvqjise'
p495
g3
sS'indian cricketer rapes woman zimbabwe & india defence attache brigadier rapes women afghanistaindians doing famous'
p496
g3
sS'#modiministry india access 99% defence technologies says american official ht/ ift28wbdn8'
p497
g3
sS'talk india getting 16s fdi defence premature best pr excercise pro dc lobbie'
p498
g3
sS'ht/ tinyurcohp58vb2 australia india focus defence champions trophy hockey pitwitter.coyvnae9r8qk'
p499
g3
sS'wonder man damaged india  defence capability immensely lack capabilities required 4 job htt/ twittecorahulkanwal/st atu745445283656437760'
p500
g3
sS'india thailand forge close ties defence maritime ht/www ndtcoindinews/ind ithailand-to-forge-close-ties-in-defence-and-maritime-1420333 pitwitter.coumgunvy2nu'
p501
g3
sS'pm modi emphasizes defence cooperation india & thailand says terrorism threat societies ht/ linewindianexpre scofj6xy nmapp'
p502
g3
sS'big bang fdi reforms defence dth retail india open economy fdi 10 key takeaways #quickread ht/www abpliviindinews/big bang-reforms-10-key-fdi-norms-relaxed-365686'
p503
g3
sS'india  lca tejas steals j17 developed pachina ht/www defencenewiarticle/heres hoindias-lca-tejas-steals-the-thunder-from-jf-17-developed-by-pak-china-6392 pitwitter.couwvhipcz44'
p504
g3
sS'r/imagesofindia new samajvad india father defence minister clapping ht/ ift28xqfme pitwitter.cowsctbdpcet'
p505
g3
sS'senate fails pass amendment boost india  defence sales ht/ ift1xzzzkp'
p506
g3
sS'@thenewsminute muslims boycot india israel defence partner india #baharaaokejriwal'
p507
g3
sS'proud moment #india cheers #government india @narendramodi @manoharparrikar @defence _news htt/ twittecohindipratyaksh status/747829860257529856'
p508
g3
sS'global defence players israel russia europe set make beeline india ht/ einnews.co4qj_egdpde'
p509
g3
sS'#breaking news govt india decided allow export ofmissile systems countries friendly india said defence minister'
p510
g3
sS'@boeingdefense & @tatacompanies #jv big step developing #india  capabilities #aerospace #defence ht/ olsymh301px7c'
p511
g3
sS'india allow 100% foreign ownership defence civil aviation sectors ht/ ift28idcid theguardian'
p512
g3
sS'knew #bangalore existed public sector units came defence units brought migrants n india #migrants'
p513
g3
sS'#indvsaus #hct2016 come india . crack australian defence . loose momentu.'
p514
g3
sS'100% #fdi #defence means throwing india s defence hands natamerican defence manufacturers e.. ht/ fm1d02dxky4'
p515
g3
sS'make india awardee #indiafirst defence & aviation category bharat malkani max aerospace mumbai'
p516
g3
sS'compromising india  anxiety defence &medicine cost promise @thehindu @timesofindia htt/ twittecofinminindia/st atu744850514874109953'
p517
g3
sS'tevez leaps messi defence says afa mess india today ht/ tinyurcozgxulhd'
p518
g3
sS'india defence export hub parrikar government taken steps defence sector increas.. ht/ bil2932fko'
p519
g3
sS'china #six nsg member countries blocked india  entry nsg d snakeeagle pakistan defence command ht/ fm84jwujcrd'
p520
g3
sS'india access 99% defence technologies says official libtard 100% clearly modi foreign policy failed'
p521
g3
sS'india successfully tesfires new surfacto-air missile developed jointly israel defence base odisha coast 3rd time'
p522
g3
sS'global defence players israel russia europe set make beeline india htt/ lnkidwij9e3'
p523
g3
sS'retweeted digvijaya singh @digvijaya_28 allowing 100 % fdi defence means india  defence sector throw.. ht/ fm7meazfunk'
p524
g3
sS'india eases foreign equity norms defence pharmaceuticals aviation retail ht/ gogfb/vvveay'
p525
g3
sS'concrete steps taken make #india export hub #defence make selrelianrm manoharparrikar pitwitter.cos0wvhcm0zr'
p526
g3
sS'drdo does india doubly proud mr sam air defence missile tested twice 25 45 pm successful thnx israel & @manoharparrikar'
p527
g3
sS'#congratulations #ada . #iaf #hal #india does #love #makeinindia #proud #tejas #defence #manufacturing htt/ twittecoetdefence/stat u748770754947190785'
p528
g3
sS'100 percent fdi defence area make india best possibility success #biggestreformever'
p529
g3
sS'wa100% fdi defence strategic autonomy national security matters lost #shame modi govt anti india htt/ twittecoashu3page/stat u744815497519071232'
p530
g3
sS'rt @newsoffdi #fdi aviation defence single-brand-retail ht/ olvpyn501cm7e #india'
p531
g3
sS'india 1944 meter franking cover slogan buy india defence loans u karachi ht/ switzerlancinflndch/swtzrq uerht/roveebay.com/rover/1/7153200-19255-0/ff3=2&toolid=10039&campid=5337597384&item=322160572698&vectorid=229466&lgeo=1 pitwitter.coyrkmoroh5t'
p532
g3
sS'sco india enters eurasia institute defence studies analyses ht/ idsipolicybrief/sc india-enters-eurasia_pstobdan_140616'
p533
g3
sS'bait fdi defence modern" state art modi government .. ht/ bil28ncyay #india'
p534
g3
sS'manohar parrikar says india defence export hub union minister manohar parrikar today said ce.. ht/ bil2920cnc'
p535
g3
sS'piece defence boost makin- india june 27 2016 htt/ twittecopgurus1/status 747791797921976320'
p536
g3
sS'pm modi calls strong defence maritime ties india thailand ht/www newindianexpresconation/pmodi calls-for-strong-defence-maritime-ties-between-india-thailan2016/06/17/article348717ece nmapp pitwitter.cojyyojb6km6'
p537
g3
sS'thank twitte. senate doesnt approve amendment recognising india defence partner ht/www dawconews/1265365'
p538
g3
sS'senate fails pass amendment boost india s defence sales ht/ ift28k17m3'
p539
g3
sS'india makes advances defence security pakistan fears possible arms race ht/ disut/29d8oom'
p540
g3
sS'india defence export hub manohar parrikar says ht/ toi3o7tva @timesofindia'
p541
g3
sS'#jobs #jobsearch ##china comes india s defence wto debate #india makes strong case fo.. ht/ bil1v9y8xr'
p542
g3
sS'india thailand boost defence ties india thailand friday agreed enhance cooperation defence an.. ht/ bingei1yxi6n5'
p543
g3
sS'100 cent fdi defence make india export hub says defence minister @manoharparrikar @timesofindia'
p544
g3
sS'100% #fdi defence means throwing india defence hands otherex defence minister ht/www sachtimecoen/india/5383 10fdi-in-defence-means-throwing-india%e2%80%99s-defence-in-the-hands-of-nato-american-defence-manufacturers-ex-defence-minister pitwitter.coltw7mnv9kd'
p545
g3
sS'historic day india `s women fighter pilots commissioned iaf today defence ministerm.. ht/ bil1xv256j'
p546
g3
sS'latest india news ht/ tinyurcohjdn97b india  integrated defence communicat.. ht/ tinyurcozjjatz2 pitwitter.codm8ntznivp'
p547
g3
sS'india fast track critical defense deals including 400 defense ht/ newsmilitarcos/x4sjp @defence _news'
p548
g3
sS'prez pranab asks drdo boost india s indigenous defence capabilitie..my story @httweets ht/www hindustantimecoindinews/pre pranab-asks-drdo-to-boost-india-s-indigenous-defence-capabilitiestory-myipreb4imk8inmyoeidfhtml'
p549
g3
sS'cong slams pm rajan congress today dismissed narendra modi defence raghuram rajan r.. ht/ bil29650j8 #india'
p550
g3
sS'recognised major defence partner india access 99% defence technology thank #modi diplomac'
p551
g3
sS'single biggest decision seriously catapult india defence factory world & #makeinindia reality htt/ twittecoani_news/statu 744854407225827330'
p552
g3
sS'china difficult foil india  nsg bid defence expert ht/ ol7zl5501o24d'
p553
g3
sS'ground report feet firmly ground india  women fighter pilots 9 defence minister m.. ht/ bil1xwkpt9'
p554
g3
sS'pm modi calls strong defence maritime ties india thailand ht/www newindianexpresconation/pmodi calls-for-strong-defence-maritime-ties-between-india-thailan2016/06/17/article348717ece nmapp pitwitter.coak3ivwzu4u'
p555
g3
sS'modi major reform push india opens 100% fdi #defence n #aviation ht/ newsconational/32937 modis-major-reform-push-india-opens-up-to-100-fdi-in-defence-aviation @nsitharaman @dippgoi @dasshaktikanta'
p556
g3
sS'trending #modifaileddiplomacy read india access 99% s. defence tech htt/ twittecothe_hindu/stat u746954708019871744'
p557
g3
sS'defence minister manohar parrikar congratulates #isro scientists team india htt/ twittecomanoharparrika status/745485954035515392'
p558
g3
sS'detailed #analysis point view 100% #fdi #defence sector ht/ bil28ttlak @financialxpress'
p559
g3
sS'.. #india #defence #bjp #manoharparrikar ht/ fmxbxioep8'
p560
g3
sS'" #modi says #india world open economy'
p561
g3
sS'major defence partner american military industrial complex infects india ht/ 21stcenturywirco2016/06/27/maj odefence-partner-american-military-industrial-complex-infects-india'
p562
g3
sS'recent past india swiftly paced way selsufficiency field defence knohow india .. ht/ fm3tgvvvd02'
p563
g3
sS'modi says india open economy'
p564
g3
sS'china diplomatic sees india nuclear energy dr pankaj jha defence expert pitwitter.cowtnlgzicmy'
p565
g3
sS'today happy meet #indian #defence #government #of #india #minister #shree @manoharparrikar ji @defenceindia1 pitwitter.coazrhf7s7j8'
p566
g3
sS'#newsupdates rt kanchangupta big bang fdi reforms defence dth retail india open economy fdi ht/www abpliviindinews/big bang-reforms-10-key-fdi-norms-relaxed-365686'
p567
g3
sS'#india change #fdi norms sees upto 100% allowance defence civ aviation cable dth & mobile tv 2 pitwitter.co1cpsbdfrfg'
p568
g3
sS'little 60% india  defence procurements according number estimates comes costly imports ht/ bilfdidefence'
p569
g3
sS'da1 #modi set defence priorit1 fdmake india took ultimate step today where d turn htt/ twittecosalmansoz/stat u744913338069581824'
p570
g3
sS'india access 99 cent defence tech official washington india coun.. ht/ bingei29bb8pt'
p571
g3
sS'proud succesful missile test boost india  defence president mukherjee drdo ht/ indianexprescoarticle/india/ indinews-indiproud-of-succesful-missile-test-fire-boost-indias-defence-president-mukherjee-to-drdo-2887765/ pitwitter.coqqnjtboukg'
p572
g3
sS'it amazing india access 99% defence technologies donald trump potus helpful india'
p573
g3
sS'pm govt wont idea india defence establishments proud super fast clearance tejas @manoharparrikar'
p574
g3
sS'story pay pensions sloth eat india  defence funds econo ht/ economictimeindiatimes.conews/defence/h opay-pensions-and-sloth-eat-up-indias-defence-fundarticleshow/5284346cms ht/ tweetedtimecodee__jatnp'
p575
g3
sS'tell india israel defence partners to. feel free leav. htt/ twittecothenewsminute/ statu744787149166280704'
p576
g3
sS'pay pensions sloth eat india  defence funds economic times huge scope savings @manoharparrikar rt ht/ economictimeindiatimes.cohopay-pensio nand-sloth-eat-up-indias-defence-fundarticleshowsp/5284346cmintenttargeno&utm_source=newsletter&utm_medium=email&utm_campaign=iacc&type=iaccnewsletter'
p577
g3
sS'india access 99% defence technologies india receive licensfree access w.. ht/ bil290h5dk'
p578
g3
sS'mtcr view far important india nsg especially looks defence perspectiv'
p579
g3
sS'india open economy world fdi 100% fdi defence aviation commerc'
p580
g3
sS'#3novices easing fdi norms disastrous india cpi ht/ ift28kvjas said fdi defence sector push india'
p581
g3
sS'controversial defence anurag kashyap bats tarun tejpal ndtv ht/www ndtcoindinews/con troversiadefence-anurag-kashyap-bats-for-tarun-tejpal-555916'
p582
g3
sS'bravo defence minister @manoharparrikar india given strong responses pak early 80s wld hv finished'
p583
g3
sS'@s_navroop 2 making military defence plan 1962 3 handling permanent membership unsc china n opening bamboo curtain'
p584
g3
sS'pak sees 211 masterminds says defence expert ht/ gog3xd3cd #news #india pitwitter.coox3z4hf1dh'
p585
g3
sS'sharekhan picks aviation defence cos invest ht/ ift28ik0hv #india'
p586
g3
sS'#india develop #rareearth defence industry ht/ bil29taybi #ree'
p587
g3
sS'#india stocks #auto #mahindra 1% #defence #walchand 2%. #fmcg #colgate 7%. #pharma #rpg 5%. #electricals #finolex 6%. #bfs #pnb 7%'
p588
g3
sS'#india allow 100% foreign ownership #defence #civilaviation #avgeek #bytzsoft ht/ ol9lqk301t8b5 pitwitter.comvgsvgjpjr'
p589
g3
sS'#view @ragkrishnan wanted eserviceman india s defence minister pitwitter.cofuw2gqrmfy'
p590
g3
sS'manohar parrikar launches india  integrated defence communication network @firstpost ht/www firstposcoindia/manohar parrikalaunches-indias-first-integrated-defence-communication-network-286508html'
p591
g3
sS'fdi aviation defence single-brand-retail ht/ ift28lyhxi #india'
p592
g3
sS'india access 99% defence tech pitwitter.coqyp3elbdrz'
p593
g3
sS'@rajivblall @thesuniljain @pmoindia @narendramodi need e sreedharan ies types execute make india defence indigenization'
p594
g3
sS'india defence partner pakistan received help $800bhashan impress htt/ twittecobyadavbjp/stat u740583134069174272'
p595
g3
sS'lrus parts lca tejas designed india ht/ dlvilhxsc1 pitwitter.coyomzpzf5wu'
p596
g3
sS'india tesfires new surfacto-air missile defence base odisha coast ht/ twiil/a5bkej94lklq pitwitter.co1gku8yozve'
p597
g3
sS'russia ready provide india advance kilclass submarine construction technology ht/ fm4gdekym25'
p598
g3
sS'fdi defence company transfer technology processes india'
p599
g3
sS'west woos namo india opens defence sector ht/ fm76vf7bf7e'
p600
g3
sS'india transforming #newindia new heights success induction #tejas fighter jemissiles & various defence indigenous product'
p601
g3
sS'6 points defence #india native mustard @drvandanashiva #gmmustardfraud @pmoindia @prakashjavdekar pitwitter.co5ebnqzdvg2'
p602
g3
sS'senate fails pass amendment boost india s defence sales ht/ ift1xv0tqz'
p603
g3
sS'india needing jobs eases rules foreign investment big change foreign defence investors ht/ nytm28izvie'
p604
g3
sS'100% fdi allowed defence sector goi brave indee! #fdi #india'
p605
g3
sS'incindia allowing 100% fdi defence sector means india  def sector thrown hands natamerican def manufacturers'
p606
g3
sS'#india #fiverr irctc make readto-eat food signs deal defence lab ht/ olmz0r501ormy'
p607
g3
sS'defence fdi reforms unshackle sector make india hub ht/www firstposcobusiness/fdr eformgovt-has-unshackled-defence-to-make-india-manufacturing-hub-284666html'
p608
g3
sS'time proactive approach bio defence preparedness business standard ht/ m28xk0wk'
p609
g3
sS'senate rejects make india defence ht/ newsconational/32628 us-senate-rejects-bill-that-would-make-india-major-defence-partner finally quits indpak'
p610
g3
sS'cnbtv18 l&t defence india needs defence modernisation l&t 14980 81% #bigfdipush'
p611
g3
sS'fdi reforms push govt opens defence pharma aviation ht/ ift28iuav6 #topnews #india'
p612
g3
sS'end special segment defence daughters stories veterans india stories htt/www faceboocoveteransofindi astorieposts/1716782461893220'
p613
g3
sS'india gets access 99 cent defence tech ht/ bil28x6vpr @newindianxpress'
p614
g3
sS'retweeted swamy times @sagenaradamuni 100% fdi defence help india realize dream selreliance th.. ht/ fmh0bqbbgz'
p615
g3
sS'new post 97 pc india  air defence obsolete report published ht/ gogmw8jg7'
p616
g3
sS'5 lesser known facts raw invisible backbone india s defence forces #indian #raw #intelligence ht/ topicecolesser-known facts-raw-invisible-backbone-indias-defence-force'
p617
g3
sS'fdi defence anil ambani et al aviation goyal jetairways pharma mainly gujjus quid pro quo west support india nsg bi'
p618
g3
sS'india thailand boost defence ties ht/ ift1wtozho vietnamese like'
p619
g3
sS'pm modi calls strong defence maritime ties india thailand ht/www newindianexpresconation/pmodi calls-for-strong-defence-maritime-ties-between-india-thailan2016/06/17/article348717ece nmapp pitwitter.coodbwivftfh'
p620
g3
sS'india  nsg bid way forward institute defence studies analyses ht/www idsiidsacomments/i ndia_nsg_bid_asajjanhar_270616v3t7m50fjne.twitter'
p621
g3
sS'india thailand forge close ties defence maritime #economy ht/ wordlincol/3h8si pitwitter.cogc4ht5gc1q'
p622
g3
sS'india thailand defence cooperation ht/ shrtifogkmxin1s @inshorts pitwitter.couvxxo0px1d'
p623
g3
sS'indius defence security cooperation analysis desire enhanced defence security engagement .. ht/ bil28tnuwb'
p624
g3
sS'#india open economy government announces new #fdi rules opens defence civil aviation pharma pitwitter.cowxtpgkhg6e'
p625
g3
sS'tcgehlot pm modi calls strong defence maritime ties india thailand ht/ twittecotcgehlot/statu 744077782741721088 pitwitter.corapb1ew0xv'
p626
g3
sS'india successfully tests new missile provides defence aerial threats india successfully tes.. ht/ bil29cni4d'
p627
g3
sS'#india wants involvement private sector indigenous #defence projects #wtcmumbai @aiai_ india ht/ economictimeindiatimes.conews/defence/m anohaparrikar-asks-drdo-to-have-industry-partner-for-projectarticleshow/5298131cms'
p628
g3
sS'#dpcgujranwala clearly sided india pakistan time pakistan enhance defence missile capability'
p629
g3
sS'defence communicatn network strategic highly secure & scalable paindia reach ladakh ne island territorie'
p630
g3
sS'kamov make india defence deal @manoharparrikar @narendramodi ht/ idrorkamomake-ind idefence-deal'
p631
g3
sS'@thenewsminute oh boycott india just beause tie defence morons shame karachi bakery'
p632
g3
sS'arun jaitley jumps arvind subramanians defence says advice great value ht/ ift28mhcis #topnews #india'
p633
g3
sS'does fdi reforms linked recent denying defence deal india indirect pressure #rexitneutralised'
p634
g3
sS'india set access 99 cent latest defence technologies washington rec.. ht/ bingei29bu0hn'
p635
g3
sS'china comes #india s defence #wto debate barriers imposed eu canada short term service providers ht/ bil28jauct'
p636
g3
sS'india signs key document sco accession #live defence aviation post ht/ bil28x1tlu'
p637
g3
sS'hacker news india access 99% defence technologies ht/ ift295x9we'
p638
g3
sS'india thailand sign key pacts boost economic defence ties ht/ ift1ug9b4p #topnews #india'
p639
g3
sS'defence minister parrikar condemns attack bjp leaders odisha ht/ ift28vlvkx #topnews #india'
p640
g3
sS'latest india news ht/ tinyurcohjdn97b hope clinch chief defence staff issue .. ht/ tinyurcoho255pl pitwitter.cowjaezas82q'
p641
g3
sS'mumbai times india eases foreign equity norms defence aviation retail roundup new del.. ht/ bil28ixbih mumbaitimes'
p642
g3
sS'#modigovt role women defence sector chngd @manoharparrikar converse vth @ficci_ india ladies monday pitwitter.cog55zw7vbqr'
p643
g3
sS'senate fails pass amendment boost india  defence sales ht/ ift23gu9fv'
p644
g3
sS'india likely test launch newldeveloped surfacto-air missile developed jointly israel defence base odisha ..'
p645
g3
sS'china comes india s defence #wto debate ht/ bil1uqy5vu pitwitter.coilxpb4xzsr'
p646
g3
sS'india allow 100% foreign ownership defence civil aviation sectors htt/www theguardiacobusiness/2016/ ju20/indito-allow-100-foreign-ownership-in-defence-and-civil-aviation-sectors'
p647
g3
sS'india thailand explore defence industry collaboration ihs jane 360 ht/ gogfb/grgyyv'
p648
g3
sS'india thailand forge close ties defence maritime ndtv ndtvindia thailand forge close ties .. ht/ bil1zwb6dd'
p649
g3
sS'amended #fdi policy defence sector applied pending applications bring desired reform ht/ bil28xzxw2'
p650
g3
sS'india allow 100% foreign ownership defence civil aviation sectors ht/ fliia5.on'
p651
g3
sS'pm @narendramodi calls strong defence maritime ties #india #thailand ht/www newindianexpresconation/pmodi calls-for-strong-defence-maritime-ties-between-india-thailan2016/06/17/article348717ece pitwitter.co2gwnozkbtk'
p652
g3
sS'speaker india matters barrister india discusses setting india defence league tackle #humanrights breaches 1984'
p653
g3
sS'pm modi calls strong defence maritime ties india thailand ht/www newindianexpresconation/pmodi calls-for-strong-defence-maritime-ties-between-india-thailan2016/06/17/article348717ece pitwitter.cohhbvhkyo1h'
p654
g3
sS'govof- india relaxes-fdi-norms-allows-100-in- defence aviation-greenfield-pharma ht/www mergersindiainfconews/290045/ pitwitter.cofcju4f57rj'
p655
g3
sS'@sgurumurthy new policies strengthen india  defence production make player global arms market ht/ timesofindia.cobusiness/india businesi-dont-doubt-rajans-indianness-but-he-lacks-expertise-to-make-policies-for-india-s-gurumurthy/articleshow/5292217cms'
p656
g3
sS'india s integrated defence communication network launched ht/ gogcywv8w'
p657
g3
sS'govt vows make india defence export hub htt/ lnkibhbpnfq'
p658
g3
sS'india successfully tesfires new surfacto-air #missile developed jointly #israel defence base of.. ht/ fm83qp5er46'
p659
g3
sS'india south africa deepen ties defence manufacturing sectors ht/ timesofindiindiatimes.coindia/indiso utafrica-to-deepen-ties-in-defence-manufacturing-sectorarticleshow/5311685cmutm_sourctwitter.com&utm_medium=referral&utm_campaign=toiindianews'
p660
g3
sS'defence boost makin- india rijul singh uppal htt/www pgurucodefencboost- makindia @pgurus1'
p661
g3
sS'fdi reforms defence civil aviation pharma fillip indius bilateral potential htt/www thedollarbusinesconews/fdrefor mto-push-indiaus-trade-usib47060via @narendramodi'
p662
g3
sS'china comes india s defence wto debate ht/www livemincopolitics/ypgzj murzw8apkoabx0zvchincomes-to-indias-defence-in-wto-debathtml'
p663
g3
sS'bullet train started ........it happen fdi defence anythi.....just corporate india happen'
p664
g3
sS'dear veterans 1 maj gen pk ramachandran retd currently serving state bank india circle defence .. ht/ fm7vpkru7dd'
p665
g3
sS'india today fdi defence aviation'
p666
g3
sS'welcome discussion indian high commissioner canada india  important defence relationship pitwitter.co5ietxgxoz8'
p667
g3
sS'increasing #geopolitical #rivalry china india japan focus bangladesh ht/www defencindustrieconews/increasin geopolitical-rivalry-china-india-and-japan-focus-on-bangladesh #defence #news pitwitter.coxy4sehg68i'
p668
g3
sS'india allows 100% fdi defence govt approval ht/ gogfb/3unnhc'
p669
g3
sS'big reforms government introduces 100% fdi defence civil aviation times india ht/ dlvilcb72q'
p670
g3
sS'#modi govt allows 100 cent #fdi defence look india  economy needs brave reforms ht/ bil1ivnmbs'
p671
g3
sS'@ottawacitizen department national defence microsatellite launched india ht/ bil297mkpz'
p672
g3
sS'constitutional breakdown pure simple fit case 356 dissolution aap defence india rules htt/ twitteconewsx/status/7 46217033767915522'
p673
g3
sS'vietnam eyes seconhand japanese defence gear ht/ gogeefb66 pity india curve thi..'
p674
g3
sS'richard rossow india defence ties roads bridges ht/ bharatshaktiuindia-defen cties-roads-and-bridges'
p675
g3
sS'india opens 100% #fdi #defence #aviation #1brandretail #pharma #foodproducts #broadcasting #privatesecurity #animalhusbandry'
p676
g3
sS'india allows 100% fdi defence govt approval foreign firms able 100% equity .. ht/ oldphh501z2cy'
p677
g3
sS'israel defence forces come india 3 year stint warm touching hear yourselg aww ht/www timesofisraecoliftinaway-t hweight-of-3-years-why-we-israelis-go-to-india-after-the-army'
p678
g3
sS'indian #defence companies handle onslaught foreign players 100% fdi level playing field @narendramodi'
p679
g3
sS'india wants sell heavyweight torpedoes vietnam ht/ defencbloconews/india-wan tto-sell-heavyweight-torpedoes-for-vietnahtml pitwitter.coqskkj2zgea'
p680
g3
sS'india thailand boost defence ties korea plus comprises representative korean ministry .. ht/ bingei1zywsa5'
p681
g3
sS'turkey opposing india  bid surprising thing turkey pak defence diplomatic relationship'
p682
g3
sS'going bag crucial spot #defence sector india respond htt/ twittecofinancialxpres status/746966234097299458'
p683
g3
sS'#india govt liberalized #fdi rules 9 sectors airlines& airports pharmaceutical defence food trading retail & tv broadcasting'
p684
g3
sS'india  finest products undermined goi regulations ditto mku defence considered good mod htt/ twittecovikrantkumar/s tatu747035564323577860'
p685
g3
sS'india thailand sign key pacts boost economic defence ties @firstpost ht/www firstposcoindia/indith ailansign-key-pacts-to-boost-economic-and-defence-ties-284105html'
p686
g3
sS'india thailand forge close ties defence maritime ht/www outlookindiconewswire/story indithailand-to-forge-close-ties-in-defence-maritime/943773 outlook wires'
p687
g3
sS'#indiausa india access 99 cent defence tech ht/ dlvilfj829 leads > ht/ gogvqjise'
p688
g3
sS'govt taken big step defence sector increasing fdthis yrs india export hub manohar parrikar'
p689
g3
sS'#topnews make india 16s 18s hunt new range fighter jets set defence ministr.. ht/ bil294gyix'
p690
g3
sS'india 3rd powerful navy world 2030 ht/www defencenewiarticle/india wilhave-the-3rd-most-powerful-navy-in-the-world-by-2030-6256 pitwitter.coymngiu9swp'
p691
g3
sS'senate fails pass amendment boost india s defence sales ht/ ift28iwth3'
p692
g3
sS'govt relaxes fdi norms aviation defence makes way apple stores india news hindustan times ht/www hindustantimecoindinews/mod govt-approves-up-to-100-fdi-in-defence-aviatiostory-gapkct3zjfwsmdsnv0et8htmutm_sourcbrowser&utm_medium=push_notification&utm_campaign=pushcrew_notification_1466394793&_p_c'
p693
g3
sS'india defence export hub pakistan terror export hub u tat @manoharparrikar ht/ timesofindiindiatimes.coindia/indito be-made-defence-export-hub-manohar-parrikar-sayarticleshow/5292980cms'
p694
g3
sS'india countries seeking defence equipment ministe.. ht/ fm7s18m8sl2'
p695
g3
sS'india member mtcr missile technology control regime boost indigenous defence sector #jaihind'
p696
g3
sS'#fdi doors flung open india aviation defence singlbrand retail key sectors ht/ indianexprescoarticle/busine seconomy/aviatiodefence-single-brand-retail-among-key-sectors-opened-2865198/'
p697
g3
sS'think china nsg obduracy india willing forward asean defence sale'
p698
g3
sS'retweeted india @incindia responded pak aggression nation united defence mother india .. ht/ fm2gmxutaxg'
p699
g3
sS'@zeenewshindi good news indian defence industry make india project'
p700
g3
sS'#indianews india s fdi rules sweeping overhaul fdi rules aviation defence relaxed tightened .. ht/ bil28iheql'
p701
g3
sS'india allow 100% foreign ownership defence civil #aviation sectors ht/ spl6015bqxkx #gadasia'
p702
g3
sS'#news defence aviation fdi huge positive economy ficci ht/ bil28mr2hd #india'
p703
g3
sS'dear #yashwantsinha ji india pak ! pak defence international forum #achievement pitwitter.co2ldmwnhvjk'
p704
g3
sS'india smug golden boy chinese state media ht/www defencenewiarticle/india ispoil-smug,-golden-boy-of-the-west--chinese-state-media-6315 pitwitter.cow1yjgm1ssq'
p705
g3
sS'obstructionist china difficult foil india s nsg bid defence expert ht/ orbitcollectioinews/692238/tw itter'
p706
g3
sS'#kapap corporate self defence workshops & training team masfa india ht/ kapaphnecorporatself defence-workshops-training-by-team-masfa-india #rt #retweet pitwitter.cowwowoxzkt3'
p707
g3
sS'pay pensions sloth eat india  defence funds eco ht/ ecoti7uotjy @rwac48 calls fr urgent review & measures'
p708
g3
sS'#india access 99% #us #defence technologies ht/www newscaspratyakshcoindia-get-acce s99-us-defence-technologies pitwitter.cow4zpi1axjh'
p709
g3
sS'headlines day .. india eases foreign equity norms defence aviation retail major fake currenc.. ht/ fm2zvpx2rdp'
p710
g3
sS'rt mahaveerm_ 2 famous iitians politics 1 working 4 india  defence working 4 gandhi family def pitwitter.cowbanxhejom'
p711
g3
sS'1962 : indira gandhi donating jewellery national defence fund india china war pitwitter.cojf2ln4y7z3'
p712
g3
sS'#india afghanistan parliament approves nomination new defence minister indian ht/ gogfb/weaeg8'
p713
g3
sS'#modiwinsmtcr just think defence revenue india getting selling missiles'
p714
g3
sS'india acquires litening targeting pod asian defence news articles defence review asia ht/www defencereviewasicoarticles/551/i ndiacquires-litening-targeting-podv3sllkm-c6i.twitter'
p715
g3
sS'infographic india  defence supplier times india ht/ timesofindiindiatimes.coindia/uis-in diatop-defence-suppliearticleshow/5302192cms'
p716
g3
sS'pathankot 100% fdi defence future development india htt/ twittecovinaydokania/s tatu744908149602328576'
p717
g3
sS'100% fdi sectors including defence ht/ gogfb/w9azvx #indilens #india #editorial'
p718
g3
sS'india thailand defence cooperation ht/ shrtifogkmxin1s inshorts'
p719
g3
sS'india thailand join hands defence maritime security new delhi june 17 ians india thailand o.. ht/ bil1v1n7dk'
p720
g3
sS'does russia say india says gain access 99% latest defence technologies ht/ gogbyihgi'
p721
g3
sS'india access 99% #us defence technologies obama admin @narendramodi #modidoctrine #mannkibaat ht/ gog0suavd'
p722
g3
sS'#spjsm india allows 100% fdi defence govt approval ht/ bil28injmx pitwitter.coa2nysmpq6t'
p723
g3
sS'senate fails pass amendment boost india s defence sales ht/ ift28j0hzq'
p724
g3
sS'india allows 100% fdi defence govt approval ht/www livemincopolitics/25sup o8jke9v9jjaqv72lindiallows-100-fdi-in-defence-via-govt-approvahtml @'
p725
g3
sS'#nationat9 #modireformpush real concerns india hypothecating india  defence sovereignity allowing 100% fdi defence'
p726
g3
sS'given monopoly india defence sectois reward supporting india nsg membership htt/ twittecokarthick2668/s tatu746978496254074880'
p727
g3
sS'indian defence attache kabul brigadier k narain expelled raping afghan girl ht/ fm4tqca0imm'
p728
g3
sS'india producer defence equipments mony production foreign htt/ twittecofak_jodhpur/st atu745075226866651136'
p729
g3
sS'pm modi ditches cm modi fought selling india foreigners allows 100% fdi defence civil aviatio'
p730
g3
sS'final decision #s400 ucav,m777 expected saturday @sayareakd @yusufdfi @bennedose #defence #india ht/ economictimes.conews/defence/r 1lakh-crore-defence-purchases-on-manohar-parrikars-minarticleshow/5287509cms'
p731
g3
sS'despite defence linkages india us-eu political interchanges goal waiting @newindianxpress ht/www newindianexprescomagazine/voice despitdefence-linkages-india-us-eu-political-interchanges-still-a-goal-in-waiting/2016/06/18/article348488ece'
p732
g3
sS'modis visit india s strategic affirmation indian defence review ht/ licom/hvbie'
p733
g3
sS'senate fails pass amendment boost india s defence sales ht/ ift28itqop'
p734
g3
sS'#biggestreformever modi govt s second big bang reforms experts say india defence hub ht/ businessworliarticle/modg ovs-second-big-bang-reforms-experts-say-india-can-become-defence-hub21-06-2016-99411v2k7qtwfoea.twitter'
p735
g3
sS'defence minister @manoharparrikar congratulates @drdo_ india successful test mrsam pitwitter.co8df1rynxhk'
p736
g3
sS'#indvsaus india win today long road ahead cards luck pc defence stroke great defence'
p737
g3
sS'hearty congratulations teams drdhal induction tejas iaf make india defence holds huge economic opportunitie'
p738
g3
sS'given india honour major defence partner actually major defence purchasor let cheated mr p'
p739
g3
sS'defence ge set blown engine unit india promise 1000 engine'
p740
g3
sS'senate rejects recognise india major defence partner ht/ ibtimes.co.iusenate-reje ctbill-recognise-india-major-defence-partner-682879'
p741
g3
sS'finance ministry springs cea defence ht/ ift28qdk6s #india'
p742
g3
sS'@tvmohandaspai 100% fdi defence clrly pressure #nsg support india head @firstpost htt/ twittecotvmohandaspai/ statu745861443308949505'
p743
g3
sS'india  ashok leyland soon close deal #malawi defence force 500 vehicles ht/ defnewl28pgngy'
p744
g3
sS'#india radical change #fdi policy'
p745
g3
sS'india access 99% defence technologies 1% left kejriwal blame mod'
p746
g3
sS'india  integrated defence communication network launched ht/www siliconindiconews/general/i ndiafirst-integrated-defence-communication-network-launched-nid-196564-cid-htmutm_campaignewsletter&utm_medium=email&utm_source=r1indianet'
p747
g3
sS'india  integrated defence communication network launched ht/www ndtcoindinews/ind iafirst-integrated-defence-communication-network-launched-1426516 @ndtv'
p748
g3
sS'wing prayer india secular republic launches tejas hindu prayers @fg_ defence @time @cnn @theeconomist htt/ twittecoshoaibdaniyal/ statu748874918360707072'
p749
g3
sS'india defence export hub parrikar bhubaneswar jun 26 union minister manohar parrikar today said ht/ tbnn.ilg8h8t'
p750
g3
sS'pm @narendramodi calls stronger defence maritime ties india thailand ht/www newindianexpresconation/pmodi calls-for-strong-defence-maritime-ties-between-india-thailan2016/06/17/article348717ece nmapp'
p751
g3
sS'potential defence cooperation papua new guinea india ht/www idsiidsacomments/d efenccooperation-papua-new-guinea-india_sbmaharaj_280616 pitwitter.covfhkovvafz'
p752
g3
sS'#pakistani #uk entire defence mechanism india specific says pakistani military official zee news ht/ olrfzh501ghxc'
p753
g3
sS'india launch high resolution surveillance spy satellite ht/www defencenewiarticle/india tlaunch-a-high-resolution-surveillance-spy-satellite-6066 pitwitter.coyx8fgkj7jy'
p754
g3
sS'100% fdi defence threat national security cong ht/ ift28qvrvi #india'
p755
g3
sS'india  nsg bid way forward institute defence studies analyses ht/www idsiidsacomments/i ndia_nsg_bid_asajjanhar_270616'
p756
g3
sS'maritime security india access 99% defence .. states continue t.. ht/ bil28zchax'
p757
g3
sS'england vs iceland euro 2016 highlights watch goals rooney team exit competition iceland defence .. ht/ bil28z3ihr'
p758
g3
sS'india sensex index bucks global downtrend favourable policies act defence ht/www economiccalendaco2016/06/19/ind isensex-index-bucks-the-global-downtrend-as-favourable-policies-long-term-liabilities-act-as-defence #sensex pitwitter.comxur0eui6l'
p759
g3
sS'pm modi emphasizes defence cooperation india & thailand says terrorism threat societies ht/www newindianexpresconation/pmodi calls-for-strong-defence-maritime-ties-between-india-thailan2016/06/17/article348717ece nmapp'
p760
g3
sS'indian defence industry agenda making india institute defence studies analyses ht/www idsibook/indiade fencindustry_lkbeherav2q7h-mnogi.twitter'
p761
g3
sS'#newsalert india allows 100% foreign direct investment defence sector reuters'
p762
g3
sS'boost india  indigenous defence capabilities president drdo ht/ zeenewindia.conews/india/boo sindias-indigenous-defence-capabilities-president-to-drdo_190231html'
p763
g3
sS'sco seen counterweight 2 natsco membership wil help india hv greater say issues security n defence combating terroris'
p764
g3
sS'india access 99% defence tech ht/ ecotia6sxya'
p765
g3
sS'fdi defence make india hub parrikar ht/ klot1ch3zbg9itl29 #makeinindia'
p766
g3
sS'#awesome india fourth largest spender defence ht/ myeffectcor/dr8o_tp pitwitter.co2wssg9zxry'
p767
g3
sS'importing defence equipment exporting missile. india come way modiwinsmtcr ht/ timesofindiindiatimes.coindia/witchi non-its-mind-india-set-to-export-brahmos-cruise-missile-to-vietnaarticleshow/5267252cms'
p768
g3
sS'pm @narendramodi calls strong defence maritime ties india thailand pitwitter.co33kjdvtoez'
p769
g3
sS'rt dpcofficial #dpcgujranwala clearly sided india pakistan time pakistan enhance defence missile capabil'
p770
g3
sS'#india defence imports come 49 percent manohar parrikar firstpost ht/ gogfb/lj6afy #topstories'
p771
g3
sS'india access 99% defence technologies white house senior official ht/ gogfb/wdjbnz'
p772
g3
sS'godse loved gandhi loved india did ban godse defence 20 years htt/ twittecosanjayuvacha/s tatu746919718418677761'
p773
g3
sS'new post india s integrated defence communication network launched ht/ wmp4dwk14ut'
p774
g3
sS'indian air force india  national defence 2032 nishant gupta ht/ japajinfjp/jpnquery ht/roveebay.com/rover/1/7153200-19255-0/ff2&toolid=10039&campid=5337597384&item=191910206762&vectorid=229466&lgeo=1 pitwitter.co0wriwxwkf8'
p775
g3
sS'rt mahaveerm_ india 2 access 2 99% defence technologies thank u narendramodi 4 ur impeccable br pitwitter.co9d8x9bpyyg'
p776
g3
sS'induction #tejas fighter jet india giant leap defence sector boost morale iaf pitwitter.co9aubl2ucbm'
p777
g3
sS'#govt bites #fdi bullet opens #defence civil #aviation & #pharma ht/ indianexprescoarticle/busine seconomy/govbites-fdi-bullet-opens-up-defence-civil-aviation-and-pharma/ @vuukle #india #cronycapitalism #mncs'
p778
g3
sS'russia ready provide india advance kilclass submarine construction technology ht/ dlvilcd54c'
p779
g3
sS'india access 99% defence technologies says official ht/ toiw3btay36 @timesofindia'
p780
g3
sS'article defence boost makin- india june 28 2016 htt/www pgurucodefencboost- makindia'
p781
g3
sS'#india defence attache brigadier rapes #afghan girl ht/ fm5gxjszckk'
p782
g3
sS'man dreams dhauladhar traditional india meets contemporary kolkata jun 29 defence .. ht/ bil29nxlrx'
p783
g3
sS'#tejas light combat aircraft inducted air force india claim mastered indigenous defence tec'
p784
g3
sS'latest india news ht/ tinyurcohjdn97b global defence players israel rus.. ht/ tinyurcohs7ayu6 pitwitter.coic0nbsskcb'
p785
g3
sS'india access 99% defence tech remains b seen d missed senate amendment impacts transfer ht/ toii7dzfb9'
p786
g3
sS'india deal 36 @dassault_onair rafales moves forward @fg_ defence ht/ ol8fgz301ydtr pitwitter.coeobynhp2qc'
p787
g3
sS'india eases #defence investment #barriers ht/www defencindustrieconews/india-eas edefence-investment-barriers #news #defencenews pitwitter.corhod1oujoc'
p788
g3
sS'described india major defence partner opening licence free access dual use technologies tech transfer'
p789
g3
sS'india access 99% defence tech india country outside formal treaty allies t.. ht/ bil29bjf3u'
p790
g3
sS'india  nsg bid way forward institute defence studies analyses ht/www idsiidsacomments/i ndia_nsg_bid_asajjanhar_270616v3e61woybf9.twitter'
p791
g3
sS'" defence minister trending topic india rank 10 duration 40m'
p792
g3
sS'#india 100% #fdi govt opens #defence civil #aviation #pharma ht/ bil28iuiju #modireformpush pitwitter.coq0bcwqrmvb'
p793
g3
sS'india makes advances defence security pakistan fears possible arms race firstpost #pakistan htt/ dragplucopost/id/363473 44'
p794
g3
sS'lol defence manuftring abundance india nook corner like millions ordinary indian retail shop htt/ twittecoriyalovezu/sta tu744845269867597824'
p795
g3
sS'#india access 99% #us defence ht/www deccanheralcocontent/554449 indiget-access-almost-9html pitwitter.cob7hbfjntaq'
p796
g3
sS'increasing fdi defence make india export hub says minister ht/www indtvuscoincreasinfdi in-defence-will-make-india-an-export-hub-says-minister'
p797
g3
sS'latest india news ht/ tinyurcohjdn97b defence imports come parrikar .. ht/ tinyurcohn26c3k pitwitter.coul21op9mse'
p798
g3
sS'prime minister india defence minister india stop euthanasia dogs horses retired fro.. htt/www changorp/primminist eof-india-defence-minister-of-india-stop-euthanasia-of-dogs-and-horses-retired-from-service-of-armed-forcerecruite95704515&utm_source=share_petition&utm_medium=twitter&utm_campaign=share_twitter_responsive @ukchange'
p799
g3
sS'senate fails pass amendment boost india s defence sales ht/ ift1v4rhkh'
p800
g3
sS'pm modi meets thailand pm india thailand step cooperation defence security ht/ dlvilb2pnw'
p801
g3
sS'defence minister parrikar condemns attack bjp leaders odisha ht/ ift28vlvkx'
p802
g3
sS'defence orders & open advocacy nuclear supplier group seat destroying india  neutraindependent status #whoisreadytolisten'
p803
g3
sS'india country chosen access 99% defence technologies says obama officia. bu.. ht/ fm3zu1ve8ix'
p804
g3
sS'pres kalam called india way having global partnerships indian psus & encourage private sector defence mf'
p805
g3
sS'india test fires surfacto-air missile cdeveloped israeli defence base odisha coast #mr sam'
p806
g3
sS'india thailand agree forge closer partnership defence maritime cooperation ht/ gogfb/mcwmah'
p807
g3
sS'india wanted procure arrow ii theatre missile defence interceptor israel denied mtcr sanctions india buy'
p808
g3
sS'india allow 100% foreign ownership defence civil aviation sectors ht/ gcop/4m4q7/stw #aviation'
p809
g3
sS'it gr8 moment boosting india  morale defence sector tejas india milestone achieved congrats iaf'
p810
g3
sS'indian government allows 100% fdi scheduled airlines defence & 74% pharmacy apple ikea benefit #india #reforms'
p811
g3
sS'lifting away weight 3 years israelis india israel defence forces ht/ tos290nicu'
p812
g3
sS'defend border china india  defence ministry approved purchase 145 ultra light howitzers ht/ bufl292avvj'
p813
g3
sS'big bang reforms 2 fdi norms eased pharma aviation defence ndtv htt/ indbreakinwordpress.co2016/06/20/big bang-reforms-part-2-fdi-norms-eased-in-pharma-aviation-defence-ndtv'
p814
g3
sS'@defence _news @s_navroop reduced 2020 ?'
p815
g3
sS'domains #india #military #defence htt/ twittecotimesnow/statu 743990869083070464'
p816
g3
sS'poland vs portugal euro 2016 live football score it pol defence vs cristiano ronaldo ht/ gogfb/kqt4wa'
p817
g3
sS'antnational gandhis digest modiji does india  development incl 100% fdi defence htt/ twittecomrsgandhi/stat u358880880539860992'
p818
g3
sS'india 16s radar thanks fdi ht/ fm3lrmv2ptz'
p819
g3
sS'india gets integrated defence communication network ht/www dailypioneeconation/indig etfirst-integrated--def-communication-networhtml'
p820
g3
sS'india announces radical changes fdi policie.. including defence sector @ibtimesuk ht/www ibtimeco.uindiannounce radical-changes-fdi-policies-1566434'
p821
g3
sS'india thailand forge close ties defence maritime security ht/www deccanchroniclconation/current affair170616/india-thailand-to-forge-close-ties-in-defence-maritime-securithtml @vuukle'
p822
g3
sS'military issues &amp'
p823
g3
sS'make india programme defence industries indigenisation role academia electronic sme ht/ gogfb/agbhlk si'
p824
g3
sS'integrated defence communication network launched india ht/ bil29dftjm'
p825
g3
sS'r/ india defence news iaf declares july 1 lca home coming induction [np] ht/ ift28ynqz8 ht/ ift28sesez'
p826
g3
sS'india fast track critical defence deals including 400 ht/ irbth.coeconomics/defe nc2016/06/23/indito-fast-track-critical-defence-deals-including-s-400_605583'
p827
g3
sS'new post 97 cent india  air defence guns obsolete published ht/ gogivwxur'
p828
g3
sS'@kumarmperfect @ndtv @nsitharaman india announced monday sweeping reforms rules foreign direct investment opening defence'
p829
g3
sS'#traffic #transportation #tech >>> hcl info implements india s integrated #defence #communication #network ht/www thehindubusinesslinconews/national/ indiafirst-integrated-defence-communication-network-launchearticle879213ece'
p830
g3
sS'fdi defence & means india  military industrial complex htt/ twittecos_navroop/stat u744947284589174784 rea'
p831
g3
sS'india eases fdi rules 100% defence including small arms civil aviation sectors htt/ twittecoreutersindia/s tatu744814333222281216'
p832
g3
sS'injustice line defence #7thpaycommissiondhokha #injusticetocapf @crpfnews @itbp_official @bsf_ india @scroll_in'
p833
g3
sS'gun lobby powerful india 100% fdi defence allow strong #fdi htt/ twittecoajaymaken/stat u745662209083187200'
p834
g3
sS'senate fails recognise india strategic defence economic times ht/ ecotiktrynb'
p835
g3
sS'assad discusses military cooperation russian defence minister reuters ht/ ift1slnjvi #topnews #india'
p836
g3
sS'@boykiller722 abbe chutiye bjp opposed fdi retail fdi defence make india stronger army kejri wil pak @aapinnews'
p837
g3
sS'400 deal dead @sjha1618 @leopard212 india fast track critical defence deals including 400 ht/ sputniknewcomilitary/20160 621041798698/indis400-systehtml'
p838
g3
sS'india ge chief hydrographer chief defence force aai bahdhalu kurahvaifi ht/www vaguthmnews/430048/ ht/ fm5xfm6r66z'
p839
g3
sS'senate fails recognise india strategic defence ht/ ecotistnuob'
p840
g3
sS'india access 99% defence technologies ht/ reahbgzl pitwitter.co5b8om2mjbt'
p841
g3
sS'retweeted india @incindia 100% fdi defence poses big threat national security .. ht/ fm7wkefkyrp'
p842
g3
sS'india s #defence production needs brahmolike projects ht/ swarajyamacodefence/indias defence-production-needs-many-more-brahmos-like-projectsv2t0nkwjgmi.twitter @manoharparrikar @nsitharaman @makeinindia @adgpi'
p843
g3
sS'boost india `s indigenous defence capabilities president drdo president pranab mukherjee today congratul.. ht/ bil297xrdq'
p844
g3
sS'garb communal harmony past functions hv held & anti india sentiments expressed @digvijaya_28 defence v poor'
p845
g3
sS'working major boost india s defence #varunastra india s indigenous torpedo launched ht/ bil29nkmzu'
p846
g3
sS'senate fails pass amendment boost india  defence sales ht/ ift1xzrvqn'
p847
g3
sS'better decisions india  1st integrated defence communication network launched ht/ mymeiakh @ndtv pitwitter.coutpfiavuh8'
p848
g3
sS'india access 99% defence tech washington india country outside formal trea.. ht/ bingei28w8uig'
p849
g3
sS'latest india considers additional 3unit hawk buy ht/ bil28uvt9o'
p850
g3
sS'sc expands scope right self defence times india ht/ dlvilb96hq #hoodienocrime'
p851
g3
sS'india access 99% defence tech hwohh. ht/www thehindconews/national/ indito-get-access-to-almost-99-of-us-defence-technologies-wh-officiaarticle877559ece'
p852
g3
sS'#india #iran defence cooperation ht/www indiandefencereviecointerviews/ind iiran-defence-cooperatiov2fmxdl2zpu.twitter'
p853
g3
sS'title defence plans begin leicester city sign defender luis hernandez sporting gijon ht/ ift28pewut #topnews #india'
p854
g3
sS'govt moves hike defence fdi 100% times india ht/ toioiyfta/a18cg @timesofindia'
p855
g3
sS'#india stocks #realty #dlf 9% #energy #cairn 8%. #defence #bforge 3%. #infra #jpa 3%. #broadcast #network18 3%. #logistics #vrl 8%'
p856
g3
sS'india makes advances defence security pakistan fears possible arms race ht/ defencenewiarticle.aspi 6065'
p857
g3
sS'india successfully launches new surfacto-air missile defence base bay bengal ht/www thedailystaneworld/asia/ind isuccessfully-launches-missile-1248160'
p858
g3
sS'india deal 36 rafales moves forward @fg_ defence ht/ ol8fgz301ydtr pitwitter.cog8bfm6xbh8 @laraseligman'
p859
g3
sS'code project varsha india  futuristic naval base ht/www defencenewiarticle/codn amproject-varsha---indias-futuristic-naval-base-6063 pitwitter.coglwe13rp0v'
p860
g3
sS'india gone 25 years reforms ht/www defencenewiarticle/india hagone-from-super-beggar-to-super-power-in-25-years-since-reforms-6494 pitwitter.co4u8skombxb'
p861
g3
sS'@thenewshour eyed rbi governor reforms throttle india self reliant defence 5 years #rexitneutralised'
p862
g3
sS'india gets influential international status trade defence environment help india  poo'
p863
g3
sS'namo haters read dis india access 99% defence technologiesays obama administration official ht/ economictimeindiatimes.conews/defence/i ndito-get-access-to-almost-99-of-us-defence-technologies-says-obama-administration-officiaarticleshow/5292346cms'
p864
g3
sS'senate fails pass amendment boost india s defence sales ht/ ift1wt6lwu'
p865
g3
sS'defence imports come 49 percent manohar parrikar firstpost htt/ indbreakinwordpress.co2016/06/27/def encimports-will-come-down-to-49-percent-manohar-parrikar-firstpost'
p866
g3
sS'india  light fighter sweden ht/ dlvilbm5hn'
p867
g3
sS'new post india eases foreign equity norms defence aviation retail published north india .. ht/ fm31tqttr6r'
p868
g3
sS'india  antsatellite weapons ht/ dlvilblhnz'
p869
g3
sS'@harrynfleming mean biggest population india beate.. mean defence spending wi'
p870
g3
sS'@timesnow 100% fdi defence change india warrior country #rexitneutralised'
p871
g3
sS'allowing 100 % fdi defence sector means india  defence sector thrown hands natamerican def manufacturers ak antony'
p872
g3
sS'big reforms government introduces 100% fdi defence civil aviation times india ht/ bil28ivpm2 #aviation'
p873
g3
sS'defence minister @manoharparrikar hand #varunastra torpedo indian navy tomorrow @drdo_ india'
p874
g3
sS'india allow 100% foreign ownership defence civil aviation sectors #economy ht/ wordlincol/3hki0 pitwitter.coboq7ovx6bz'
p875
g3
sS'#defence india weak point hav set #indvsaus #hockey#championstrophy'
p876
g3
sS'@jhon_adel @manoharparrikar mr defence minister know india super power hurling abuse'
p877
g3
sS'pay pensions sloth eat india  defence funds ht/ economictimeindiatimes.conews/defence/h opay-pensions-and-sloth-eat-up-indias-defence-fundarticleshow/5284346cms really delayed projectcost escalacorruptio'
p878
g3
sS'india today 100 cent fdi defence aviation approved 74 cent pharma ht/ googlconewsstand/s/cb iwvzqt0iu'
p879
g3
sS'india allows 100% fdi defence aerospace pharma big boost telangana strong base sector'
p880
g3
sS'india  1 enemy pakistan china defence minister george fernandez'
p881
g3
sS'retweeted digvijaya singh @digvijaya_28 allowing 100 % fdi defence means india  defence sector throw.. ht/ fm7pzveaal5'
p882
g3
sS'retweeted iss naval news @navalnews eye #china #indonesia  parliament approves higher defence .. ht/ fm52xohuugy'
p883
g3
sS'[trending] india access 99% defence technologies official dna ht/www dnaindicoindia/repori ndito-get-access-to-almost-99-of-us-defence-technologies-2228139'
p884
g3
sS'narendra modi news india access 99% defence t.. ht/ namotrendsetterblogspot.co2016/06/india tget-access-to-almost-99-of-uhtmspretw'
p885
g3
sS'2 india  indigenous #defence #communication #network dcn dedicated nation hardly media covered news 2'
p886
g3
sS'modis new confident india gets major shot arm defence sector ht/ bufl28qtbuh'
p887
g3
sS'#defencereview india roaring defence market ht/ dlvilckb3m'
p888
g3
sS'india allows 100% fdi defence govt approval ht/ olts8m501yzg3'
p889
g3
sS'entry #mtcr important step india need upgrade supersonic missiles antmissiles better defence'
p890
g3
sS'china difficult foil india  nsg bid defence expert ht/ tinyurcohr84gkn @karachi_news'
p891
g3
sS'india thailand join hands defence maritime andsecurity ht/ punjabtribuncoindithailand join-hands-in-defence-maritime-and-securithtml pitwitter.covspybbszsr'
p892
g3
sS'latest india taps locally ht40 basic trainer ht/ bil28ojmq5'
p893
g3
sS'india s integrated #defence communication networklaunched ht/www financialexprescoarticle/india newindiafirst-integrated-defence-communication-network-launched/302232/v3ui8_jtnos.twitter @manoharparrikar @spokespersonmod @_digitalindia'
p894
g3
sS'india thailand boost defence ties ht/ iibnmoney.co2016/06/18/ind ithailand-to-boost-defence-ties #news'
p895
g3
sS'retweeted air defence alerts @airdefencenews 3 ships @indiannavy ins sahyadri ins shakti ins kirc.. ht/ fm4bdhhh4wm'
p896
g3
sS'#awareness india thailand sign key pacts boost economic defence ties ht/ ift1yyjy3i .. fields economy cou'
p897
g3
sS'big news defence investments #india ht/ ireuters.coarticle/india fdidinkcn0z60tb @makeinindia pitwitter.colso8zzitmt'
p898
g3
sS'100% fdi defence need hour venkaiah naidu ht/ ift28vv1bl #india'
p899
g3
sS'time proactive approach bio defence preparedness ht/ m291cyes'
p900
g3
sS'india set access 99 cent latest defence technologies ht/www indiatvnewconews/worlind iset-to-get-access-to-almost-99-per-cent-of-latest-us-defence-technologies-336572 #indiatv pitwitter.cowsmipobtpm'
p901
g3
sS'#panipat1761 marathas fought defence india bhau vishwas rao died kala amb fighting armies n'
p902
g3
sS'kamov make india defence deal ht/ fm18gg4oqmv'
p903
g3
sS'#india procure 400 #fighterplanes 2030 @chbirendersingh ht/ gogsp6jnp @narendramodi #orop #nda #defence'
p904
g3
sS'retweeted narendramodi_in @narendramodi_in pm modi emphasizes defence cooperation india .. ht/ fm2lutva7ti'
p905
g3
sS'#modiministry india access 99% defence technologies white house official hindu ht/ ift28u44wl'
p906
g3
sS'india sell modbjp nda modi govt allows 100% fdi defence aviation #lootinindia'
p907
g3
sS'time rework russian relationship defence make india projects crude & good gran. #chinaexposed'
p908
g3
sS'"bsf india  line defence @natgeo shows @bsf_ india protects frontlines deserts forests mountains & swamps'
p909
g3
sS'india preparing pakistan ht/www defencenewiarticle/india anus-preparing-for-a-big-war-against-pakistan-6517 pitwitter.codmqvvmi036'
p910
g3
sS'modi obama embrace history india ink defence counteterror pacts highlights ht/ liintoday.in/gnu v4'
p911
g3
sS'#tejas india marking new beginning making defence stronger desi way #congrats'
p912
g3
sS'@timesofindia especially congress struck recognise india strategic partner 100% fdi defence good ide'
p913
g3
sS'india  1st integrated #defence communication network great job @drdo_ india #transformingindia pitwitter.coqtfxs8exld'
p914
g3
sS'iafs s30 mki tesflown #brahmos missile 5 reasons important india s defence capability ht/ bil28u6cd8'
p915
g3
sS'india double entry visa thai nationals increase defence cooperation ht/ zeenewindia.conews/india/ind ito-give-double-entry-e-visa-to-thai-nationals-increase-defence-cooperation_189707html pitwitter.co2grz5bxhub'
p916
g3
sS'disbanding village defence committees stage feasible j&k govt ht/ ift29a8eii #topnews #india'
p917
g3
sS'proud parents india  #women #fighter #pilots commissioned #iaf #defence minister #hyd pitwitter.co0selzrwqqs'
p918
g3
sS'anthony ji genius just like @officeofrg prefers india importing defence equipment india htt/ twittecotimesofindia/s tatu744883498587021313'
p919
g3
sS'100% fdi defence v disturbing means global arms industry start lobbying india enter wa'
p920
g3
sS'#fdi defence make india export hub @manoharparrikar ht/www financialexprescoarticle/econom fdin-defence-will-make-india-an-export-hub-parrikar-bhubaneswar/297495/v3cxfr1k-ga.twitter'
p921
g3
sS'india joins #mtcr 7 things country stands gain #defence ht/ economictimeindiatimes.conews/defence/i ndijoins-mtcr-7-things-the-country-stands-to-gaiarticleshow/5293405cms'
p922
g3
sS'india s integrated defence communication network dcn launched union defence minister manohar parrikar south block delhi'
p923
g3
sS'congress proposed 49% fdi defence modi got 100% fdi fulfil congress dream congress free india #jumlamodi'
p924
g3
sS'india defence export hub parrikar bhubaneswar jun 26 union minister manohar parrikar today said ht/ tbnn.ilfl1p9'
p925
g3
sS'india access 99% defence technologies says official ht/ toibp3vpb pitwitter.coirdxwtopgu'
p926
g3
sS'sushma swaraj india major defence partner does mean forget nam non aligned movement'
p927
g3
sS'india gets access 99 cent defence tech india s nearing ht/www newindianexpresconation/noind igets-access-to-99-per-cent-of-us-defence-tec2016/06/27/article350170ece pitwitter.cofvialpqhay'
p928
g3
sS'inclined pak senate rejected recognising india global strategic & defence & htt/ twittecothetalliqueen/ statu744009524185489410'
p929
g3
sS'india eases foreign equity norms defence aviatioretail ht/ tennewiforeigequity norms-defence-aviation-retail'
p930
g3
sS'india access 99% defence technologies washington india country out.. ht/ bingei29ed4hy'
p931
g3
sS'#india clears deal buy 145 bae artillery guns #defence @baesystemsplc ht/ olk033301dqql pitwitter.coxgwkbyyh3y'
p932
g3
sS'india todayat 9 defence minister manohar parrikar announced reading written speech re.. ht/ fm2rnb0udzo'
p933
g3
sS'@bsf_ india prevents 300 bangladeshi nationals crossing border tripura @defence _news @hmoindia pitwitter.cofnkh1rtj2e'
p934
g3
sS'st antony flawed logic 100% foreign import defence ok 100% defence fdi leads make india makes sens'
p935
g3
sS'pics india  women fighter pilots defence minister manohar parrikar formally commissioned india ht/ fm7r87aqc91'
p936
g3
sS'india today govt okays purchase rs 4000 cr russian missiles boost aerial defence ht/ googlconewsstand/s/cb iw0kmmyig'
p937
g3
sS'india allow 100% foreign ownership defence civil aviation sectors guardian htt/ applnewavm9yxfs7k6y eonpcsa'
p938
g3
sS'india allows 100% fdi defence govt approval ht/ bil28injmx'
p939
g3
sS'#debateoftheday think make india campaign led indigenisation defence technologies india ht/ foruchronicleias.codebatof-the- damakin-india-and-defence-sector/'
p940
g3
sS'india tesfired surfacto-air #missile jointly developed israel chandipur #defence base pitwitter.cove67553blt'
p941
g3
sS'defence daughters veterans india stories read story @htt/www faceboocoveteransofindi astorieposts/1715517968686330 pitwitter.cogacwvysvpc'
p942
g3
sS'india thailand sign key pacts boost economic defence ties firstpost ht/ tinyurcozjqa6b9'
p943
g3
sS'allowing 100% #fdi defence sector means india  defence sec thrown hands natamerican defence manufacturerak antony'
p944
g3
sS'china snub asks #nsg members support india  entry 100% fdi defence aviation ka kuch toh fayda hog'
p945
g3
sS'india  #tejas versus pakistan #jf17 compare say #defence experts ht/ gogcrjprh pitwitter.coahntucwwhr'
p946
g3
sS'100% fdi defence companies make india nuts bolts assembly center govt make sure thi'
p947
g3
sS'rm dedicates dcn nation defence minister shri manohar parrikar dedicated th.. ht/ bil29adfk6 #pressrelease #india'
p948
g3
sS'despite fdi liberalisation bureaucratic hurdles remain foreign #defence companies investing #india ht/ bil294vqw2'
p949
g3
sS'honerable defence minister shri manohar parrikar standing 3 women fighter pilots india htt/ twittecobjpsamvad/stat u744125517306167296'
p950
g3
sS'china military facility djibouti seen india institute defence studies analyses a.. ht/ bil28paiyw'
p951
g3
sS'mt @mishrasylvia #india buy defence technologies nous official ht/ thewiri46110/indica buy-almost-all-defence-technologies-now-says-us-official #pentagon #modi #secdef #china'
p952
g3
sS'centre approving 100% fdi defence sector encourage make india boost investment inflow country @nsitharaman'
p953
g3
sS'rt ravi_saraogi india test launch new jointly developed indisraeli missile tomorrow defence news amri pitwitter.co54objlrkfa'
p954
g3
sS'india access 99 cent defence tech official ht/ dlvilfcxs2 pitwitter.co2piedau2ne'
p955
g3
sS'r/ india congress oppose fdi defence parliament anand sharma ht/ ift28okw5y ht/ ift28rdrfd'
p956
g3
sS'read mohan das menon column despite defence linkages india us-eu political interchanges goal waiting ht/ bil263zko3'
p957
g3
sS'fdi relaxation defence doubledged-knife return support war mongers india  nsg entry ht/ timesofindiindiatimes.cobusiness/india businesbig-reforms-government-introduces-100-fdi-in-defence-civil-aviation/articleshow/5283140cms'
p958
g3
sS'great news #india entradmission #mtcr #defence @isro @manoharparrikar @adgpi'
p959
g3
sS'india  batch women fighter pilots commissioned history scripted saturday defence ministe.. ht/ fm16wwnrfne'
p960
g3
sS'people afghanistan trust india pakistan ht/www defencenewiarticle/thpe oplof-afghanistan-trust-india-more-than-pakistan-6212 pitwitter.coikgladkk0o'
p961
g3
sS'@drdo_ india doing fabulous job proud team indians salut thanks building defence stronge'
p962
g3
sS'india seeks deeper partnership south africa defence sector ht/ indianexprescoarticle/india/ indinews-indiindia-seeks-deeper-partnership-with-south-africa-in-defence-sector-2902090/ pitwitter.cop8zcryaozl'
p963
g3
sS'india unveil strategic partners policy biticket defence projects ht/ liwww.defensenew covizav'
p964
g3
sS'india access 99% defence tech ht/ timesofindiindiatimes.coindia/indito get-access-to-99-of-us-defence-technologies-says-us-officiaarticleshow/5292428cmutm_sourctwitter.com&utm_medium=referral&utm_campaign=toitopstories'
p965
g3
sS'senate fails pass amendment boost india s defence sales ht/ ift1ovc20x'
p966
g3
sS'times india defence stocks surge 7% fdi reforms shares companies related defence sp.. ht/ bil28jbdkc'
p967
g3
sS'brexit wont hurt india s defence procurement says defence minister parrikar ht/ twiil/e5b6o5lexbo7 pitwitter.cok99etl6z06'
p968
g3
sS'rt mahaveerm_ induction #tejas fighter jet india giant leap defence sector boost mor pitwitter.coli6mhzpeb2'
p969
g3
sS'diarrhoea pakistan india makes advances defence security pakistan fears possible arms race ht/ disut/29d8oom'
p970
g3
sS'#india access 99% #us defence technologies htt/ shae1l1a0y @@thetribunechd'
p971
g3
sS'india  defence needs money mr pm ht/www redifconews/column/in diadefence-needs-more-money-mr-p2016061htm'
p972
g3
sS'really ! india buy defence technologies says official ht/ thewiri46110/indica buy-almost-all-defence-technologies-now-says-us-official @thewire_in'
p973
g3
sS'#india  defence minister parrikar visits hub hails telangana government feat ht/www siasaconews/parrikar visitt-hub-hails-telangana-govts-feat-974576 #incubator #thub'
p974
g3
sS'nda govt introduces big bang reforms boost job creation & infrastructure 100% #fdi defence & civil aviation pitwitter.conbqfsd1xnd'
p975
g3
sS'big reforms government introduces 100% fdi defence civil aviation times india ht/ dlvilc7w4n'
p976
g3
sS'firstpostindia thailand sign key pacts boost economic defence tiesfirstpostnew delhi india thai.. ht/ bil1au5yz5'
p977
g3
sS'india  nsg bid way forward institute defence studies analyses ht/ fm4nis4fuob'
p978
g3
sS'@digvijaya_28 ak antony sabese bada chutiya defence minister india says soldiers hai sir katane k liye'
p979
g3
sS'india allow 100% foreign ownership defence civil avaiation sector.. going help indians htt/www theguardiacobusiness/2016/ ju20/indito-allow-100-foreign-ownership-in-defence-and-civil-aviation-sectors'
p980
g3
sS'#india #thailand join hands #defence #maritime #security ht/ gogiw50da @pmoindia pitwitter.coihrd3vhr0u'
p981
g3
sS'india defence export hub manohar parrikar says times india ht/ toi3o7tva/a18cg @timesofindia'
p982
g3
sS'indian encourage india  defence partnrship wid israel human condemn israel 4 massacring palestinians pitwitter.coehairrokjr'
p983
g3
sS'india south africa deepen ties defence mfg sectors kisi ke paas ho na ho koi na hamm mangege jarur ht/ timesofindiindiatimes.coindia/indiso utafrica-to-deepen-ties-in-defence-manufacturing-sectorarticleshow/5311685cms'
p984
g3
sS'100% fdi defence sector dangerous india  future step #modigovt cost arm & le'
p985
g3
sS'#fdi upto 100% #defence beneficial long term #india majorly dependent imports defence eqp #ey'
p986
g3
sS'great india  defence n spiritual power @manoharparrikar @ajit_dobhal @narendramodi htt/ twittecotimesnow/statu 744855110660956160'
p987
g3
sS'india  1st integrated #defence communication network pitwitter.coqgpa96f9qf'
p988
g3
sS'defence offsets policy push make india book review ht/www businesstandarcoarticle/news-i anrevamdefence-offsets-policy-to-push-make-in-india-book-review-116062400261_html'
p989
g3
sS'india lca indian defence cheer tejas greater glory @timesnow @ndtv @narendramodi @manoharparrikar @bjp4india'
p990
g3
sS'100% fdi allowed #defence #ecommerce & civil #aviation #india goobad homegrown #entrepreneurs'
p991
g3
sS'india final stage agreeing aircraft carrier technologies ht/www defencenewiarticle/india us-in-final-stage-of-agreeing-on-aircraft-carrier-technologies-6046 pitwitter.copul7gnz1b1'
p992
g3
sS'india today make india emerging entrepreneur awards defence realm buyer seller india t.. ht/ bil29xqtwl'
p993
g3
sS'htt/ youtbyohhze7eqkg bsf india  line defence [documentary video natgeo]'
p994
g3
sS'rt mahaveerm_ induction #tejas fighter jet india giant leap defence sector boost mor pitwitter.co02dw1eggb0'
p995
g3
sS'#india #strategicautonomy sell country 100% fdi defence vassal blow entire diplomatic credit #nsg'
p996
g3
sS'country soon wide range india fighter plane defence ministry moving fast t.. ht/ fm2atzt8gz8'
p997
g3
sS'relaxation pharm: big boost make india defence #biggestreformever'
p998
g3
sS'@crystalmet hah. india wanted defence partner us. ghanta dikha diya india ko @zari_gee @wiseguy70 @hstapanghosh'
p999
g3
sS'7th strategic electronics summit defence & aerospace 8 july 2016 biec bengaluru pitwitter.cowyzc7tribk'
p1000
g3
sS'modi okays $1 bn surveillance deal eye china #india #defence ht/ economictimeindiatimes.conews/defence/p modi-okays-1-billion-deal-with-us-for-4-poseidonarticleshow/5301754cms'
p1001
g3
sS'strategic electronics summit focus make india indigenization make india programme defence ht/ dlvilhm9xs'
p1002
g3
sS'big reforms indian government introduces 100% fdi defence civil aviation food pharma ecommerce #india #modi ht/ timesofindiindiatimes.cobusiness/india businesbig-reforms-government-introduces-100-fdi-in-defence-civil-aviation/articleshow/5283140cms'
p1003
g3
sS'new #fdi policy change defence sector does require approval #rbi establish branch project offices ht/ bil28xzxw2'
p1004
g3
sS'look defence minister india manohar parrikar simple man living dining cheap hotel pitwitter.co8ofubvpk5l'
p1005
g3
sS'major changes fdi policy defence sector opens heres need know ht/ swarajyamacoeconomy/major changein-fdi-policy-defence-sector-opens-upv2ifukp2kv8.twitter'
p1006
g3
sS'unless defence home & pm0 integrate coordinate & operate jointly counter d proliferating jihadi threat india troubl'
p1007
g3
sS'secretary government india ministry defence d ceremonials closed case approval b.. ht/ fm4rhlwdtzv'
p1008
g3
sS'india thailand forge ties defence maritime image .. ht/ bil1v10qz4 source madhyamam'
p1009
g3
sS'mumbai times fdi defence make india hub parrikar bhubaneswar odisha jun.. ht/ bil291vzyc mumbaitimes'
p1010
g3
sS'modi doctrine brick brick quietly dismantling pacifist approach india  defence & security regim'
p1011
g3
sS'euro 2016 belgium hurt depleted defence golden generation chance ht/ ift29ae91n #topnews #india'
p1012
g3
sS'#topnews india clears purchase 145 ultrlight howitzer guns defence acquisition council da.. ht/ bil28ubv6s'
p1013
g3
sS'india thailand defence cooperation ht/ liwww.inshorts.c oen/laymh'
p1014
g3
sS'incindia 100% fdi defence poses big threat national security & india s independent foreign policy def min ak'
p1015
g3
sS'india access 99% american defence technologies official ht/ bil28zsd9r'
p1016
g3
sS'@jhasanjay live ancient paradigcong compromised national security having middle man defence dealyou threat india'
p1017
g3
sS'11 #mtcr procure #arrow ii theatre missile defence interceptor israel help india defend pachin ballistic missile'
p1018
g3
sS'india defence ministers raised libidos brigade army job hurling abuses @manoharparrikar'
p1019
g3
sS'india allow 100% foreign ownership defence civil aviation sectors ht/ twiil/e5bpyx57bro7 pitwitter.cooknnm60uqm'
p1020
g3
sS'kudos india member #mtcr missile technology control regime enhance potential defence expormissil'
p1021
g3
sS'india access 99% defence technologieobama administration ht/ gog0suavd ht/ fme 5t7uzsibh'
p1022
g3
sS'#india govt eases fdi aviation pharma defence'
p1023
g3
sS'#makeinindia assocham heralds fdi policy change achieving india  dream defence self reliance ht/ bil28rii1f @nsitharaman'
p1024
g3
sS'#india #us military relationship closer defence secretary ashton carter'
p1025
g3
sS'euro 2016 belgium manager marc wilmots blames mistakes makeshift defence loss wales ht/ ift29fvud2 #topnews #india'
p1026
g3
sS'entire defence mechanism #india specific ht/www dawconews/1266707/w orlabandoned-pakistan-to-face-terrorists-alone-asim-bajwa #strategicassets killing pakistanis'
p1027
g3
sS'dis d 1st time india got defence minister connect troops awesome manohar parrikar rocks htt/ twittecoani_news/statu 747072061894496256'
p1028
g3
sS'#brexit good india longer run incase defence deal britain cos eu nose poking'
p1029
g3
sS'india access 99% #us defence technologies modi failed foreign policy getting 100% #tweetlikelibtards'
p1030
g3
sS'#modiministry fdi defence make india hub parrikar business standard ht/ ift28whh4b'
p1031
g3
sS'100% fdi means #india  defence secret sundry knowing details #indianarmy #modi sold #india'
p1032
g3
sS'@shekhargupta check tweets bjp upa time 100% fdi defence retail 130 assets india toda'
p1033
g3
sS'india access 99% defence technologies white house official hindu ht/ dlvilfzcn8 #yugvani'
p1034
g3
sS'#demo #mobileapps ht/ gogroucil defence minister india & minister telangana pitwitter.cofvvzcgtetd'
p1035
g3
sS'nation proud achievement & looks drdo make greater efforts boost india s defence capabilities #presidentmukherjee'
p1036
g3
sS'retweeted india radio news @airnewsalerts defence minister @manoharparrikar newly commissioned thre.. ht/ fm1c7oi4vcp'
p1037
g3
sS'allowing 49% fdi akin congress selling india cm modi pm modi allowed 100% fdi defence htt/ twittecoanshbx/status/ 744838587242393600'
p1038
g3
sS'india thailand explore defence industry collaboration india thailand agreed expand defence .. ht/ bil28iwql4'
p1039
g3
sS'india hopes investment nocritical sectors #defence #bhivelabs ht/ dlbecjnj'
p1040
g3
sS'manohar parrikar launches india  integrated defence communication network discussion msm abou.. ht/ fm1ofhyfht1'
p1041
g3
sS'hindu india clarity defence acquisitions soon ht/www thehindconews/national/ morclarity-on-defence-acquisitions-sooarticle876537ecretopnavwidget&utm_source=topnavdd&utm_medium=topnavdropdownwidget&utm_campaign=topnavdropdown'
p1042
g3
sS'#india access 99% defence technologies says official ht/ toibp3vpb'
p1043
g3
sS'#india #taiwan relations #asia future institute #defence studies analyses ht/www idsibook/inditai warelations-in-asia-and-beyondv2ohod7ophw.twitter'
p1044
g3
sS'mucimproved defence boon india ht/ hockeypassioimucimproved- defenca-boon-for-india #hct2016'
p1045
g3
sS'india thailand forge close ties defence cyber security economy image prime minister narendra modi .. ht/ bingei1zxvnzs'
p1046
g3
sS'india  defence communication network highway traffic 7.16 prakash katoch ht/www firstposcoindia/indiad efenccommunication-network-a-highway-with-no-traffic-287158html'
p1047
g3
sS'lounge review entourage yesterday invited india s sitcom themed lounge defence colonth.. ht/ ol2poq501jd0n'
p1048
g3
sS'#india stocks #pharma #torrent 8%. #logistics #shreyas 6% #industrial #escorts 8%. #textile #gloster 2% #energy #ioc 4% #defence #rdel 6%'
p1049
g3
sS'word rafale deal parrikar june 30 deadline lapses government silence rahul bedi ht/ lsr145e6 #rafale #defence #india'
p1050
g3
sS'ht/ bufl29hddly india set super power @narendramodi leadership & @manoharparrikar defence minister #glowhome'
p1051
g3
sS'dawn pakistan senate doesn&rsquot approve amendment recognising india defence partner ht/www dawconews/1265365/u senate-doesnt-approve-amendment-recognising-india-as-defence-partner'
p1052
g3
sS'jv tata & boeing significant step developing india s capabilities aerospace& defence manufacturinglobal exporteparrikar'
p1053
g3
sS'@sabena_siddiqi @nadeemmalik kicked defence intelligence chief taking money india afghanistan'
p1054
g3
sS'100% fdi defence help india realize dream selreliance sector assocham ht/www indiawesconews/business/ businessmeindustrialists-policymakers-hail-new-rules-opening-indian-economarticle_b47591d6-38c0-11e6-bfc4-7be6d8515c1html nmapp'
p1055
g3
sS'lalu attacks pm allowing 100% fdi defence ht/ ift28lzvyd #india'
p1056
g3
sS'india thailand boost defence ties india sharpened focus souteast asia recent times wit.. ht/ bingei1v42wyi'
p1057
g3
sS'india thailand forge close ties defence maritime new delhi india thailand friday decided .. ht/ bil1w4xdso'
p1058
g3
sS'#india defence ministry nod buy 145 ultra light howitzers worth rs 5000 crore ht/ gogfb/fccbw0'
p1059
g3
sS'@swatson_csis punctures myths pending s. legislation defence ties india good read ht/www thehindcoopinion/oed/ realitcheck-on-indiaus-tiearticle877604ece'
p1060
g3
sS'india eases foreign equity norms defence aviation retail pmo indiaa ministry finance government o.. ht/ fm7xi5o5bme'
p1061
g3
sS'rt dailyo_ #modi govt allows 100 cent #fdi defence look india  economy needs brave reforms ht/ bil1ivnmbs'
p1062
g3
sS'100% fdi defence & make india contradict othe. modi confused cheating indian people juml. @shirishkunder @geetv79'
p1063
g3
sS'defence communication networstrategic & highly secure paindia reach ladakh ne island territories launche'
p1064
g3
sS'@zeenews like trap make big defence entry indian market .. stay alert stay safe ..god bless india'
p1065
g3
sS'indian express india fdi doors flung open aviation defence key sectors ht/ indianexprescoarticle/busine seconomy/aviatiodefence-single-brand-retail-among-key-sectors-opened-2865198/'
p1066
g3
sS'entire congress leadership come defence @arunjaitley issue dr @swamy39 attack speaks volumes fo jaitlecong'
p1067
g3
sS'fdi defence government lost minnow india heading slavery foreign firmcongress start freedom movement'
p1068
g3
sS'alert india relaxes fdi norms civil aviation defence pharma sector'
p1069
g3
sS'#hclinfosystems hcl info implements india  integrated defence communication network read ht/ owleuaasmev $500179'
p1070
g3
sS'india s integrated defence communication network launched enabling army air force navy th.. ht/ fm5eoqa6fpc'
p1071
g3
sS'india official allows 100% fdi defence government approval route'
p1072
g3
sS'@jhasanjay india use western technology produce defence equipment & save billions dollars infact earn billions dollar'
p1073
g3
sS'india access 99% defence tech obama official ht/ bil28udu52'
p1074
g3
sS'#modiwinsmtcr india access 99% defence technologies says official ht/ timesofindia.coindia/indito get-access-to-99-of-us-defence-technologies-says-us-officiaarticleshow/5292428cmutm_sourcfacebook.com&utm_medium=referral&utm_campaign=toi'
p1075
g3
sS'modi acheivements foreign tours rejects make india defence partner india nsg pitwitter.cochkg1hvfea'
p1076
g3
sS'dear mr parrikar visit military training centres raw recruits soldiers ht/ lsr13pjo #parrikar #india #defence'
p1077
g3
sS'good fdi defence aim make india & export target achieved'
p1078
g3
sS'#modiwinsmtcr membership enhance india  spaceprogram missile ht/ tecdev research deployment civil defence use'
p1079
g3
sS'@srirambjp long b4 india @narendramodi ji net exporter f defence materials worldwid.compare lrgst imprtr'
p1080
g3
sS'india sees new regional role navy indian defence news ht/www indiandefensenewi2016/06/india seenew-regional-role-for-ithtml'
p1081
g3
sS'#makeinindia reforms defence pharma & aviation make india world open economy fdi learn ht/ bil29f7bcn'
p1082
g3
sS'pm working pressure'
p1083
g3
sS'senate fails pass amendment boost india s defence sales ht/ ift1y14tcp'
p1084
g3
sS'#india access 99% #us defence technologies ht/ olizmw301dkl7 pitwitter.cooi2v51txlw'
p1085
g3
sS'make india .. fund americ.. west selling country defence hands o.. ht/ fm2aljwg534'
p1086
g3
sS'india allows upto 100% #fdi defence secto.'
p1087
g3
sS'growing indus ties ht/ potentiatop defence cos setting india cud game changers htt/ twittecod_jaishankar/s tatu744968204695412737'
p1088
g3
sS'major boost 4 india s defence india gets 1st indigenous torpedo varunastra 8th country design & build ht/ bil295asya'
p1089
g3
sS'#3novices india access 99% defence technologies ht/ ift28u3fuh india receive licensfree access t'
p1090
g3
sS'#india defence minister manohar parrikar htt/www flightglobaconews/articles/ indiadeal-for-36-rafales-moves-forward-4266utm_sourctwitterfeed&utm_medium=twitter @makeinindia pitwitter.coro5iijam5q'
p1091
g3
sS'@india _policy hope serves peoples purpose lot depend defence ministry #positivethinking'
p1092
g3
sS'@sushmaswaraj improved relations #us announed #india major #defence partner pitwitter.coybbfdrpuej'
p1093
g3
sS'#india defence minister blames #pakistan attack india held #kashmir ht/www dawconews/1267374 pitwitter.corgeudm15io'
p1094
g3
sS'bangladesh terror attack attempt destabilise prindia sheikh hasina govt say defence experts ht/ indianexprescoarticle/world/ worlnewbangladesh-terror-attack-attempt-to-destabilise-pro-india-sheikh-hasina-govt-say-defence-experts-2900205/'
p1095
g3
sS'it goo100% fdi means foreign cos set fully owned company india make weapns india supply defence .whts wrong'
p1096
g3
sS'potential defence cooperation papua new guinea india institute defence studies analyses ht/www idsiidsacomments/d efenccooperation-papua-new-guinea-india_sbmaharaj_280616v3t4b7_cloq.twitter'
p1097
g3
sS'@fans_bharat rbi election commission chief justice india heads defence services disturbed politics'
p1098
g3
sS'latest india news ht/ tinyurcohjdn97b defence ministrys shipyard vs ambani .. ht/ tinyurcojhcosey pitwitter.coisjypt9xnv'
p1099
g3
sS'brexit does matter india institute defence studies analyses ht/www idsiidsacomments/b rexidoes-it-matter-for-india_mathew-simon_170616v2kkrho9jpu.twitter'
p1100
g3
sS'india final stage agreeing aircraft carrier technologies ht/ newsmilitarcos/clzlu @defence _news'
p1101
g3
sS'thanks pm @narendramodi news #fdi increase 100% #defence #aviation historical development #india'
p1102
g3
sS'india allow 100% foreign ownership defence civil aviation sectors guess help economy ht/ gcop/4m4qcmsh are_androidapp_tweet'
p1103
g3
sS'rt @manoharparrikar #india largest defence #fdi jv #tata #boeing make fuselage apache pitwitter.cobpw8fvgct8 #fdi'
p1104
g3
sS'modi govt bites fdi bullet relaxes norms aviation defence india open economy world ht/ ecotil45tuy'
p1105
g3
sS'100% fdi defence ~ india compromised~ twitter & fb & linkedin & google & skype & whatsapp ..'
p1106
g3
sS'bhakts 2014 make india aap ki ba.modi sarkar 2016 100% fdi defence aap ki ba.modi sarkar'
p1107
g3
sS'#maldives opposition seeks active role india defence aviation post ht/ defenceaviationposcomaldiveoppos itioseeks-active-role-india'
p1108
g3
sS'india today successfully tesfired new surfacto-air missile developed jointly israel defence base odisha coas'
p1109
g3
sS'indian defence minister blames pakistan attack india held kashmir ht/www dawconews/1267374 idiot say'
p1110
g3
sS'@navendusingh_ defence policy he wearing head @india _policy'
p1111
g3
sS'#mustwatch bsf india  line defence documentary @natgeo htt/ youtbyohhze7eqkg'
p1112
g3
sS'india thailand forge close ties defence cyber security economy image prime minister narendra modi .. ht/ bingei1xtmyde'
p1113
g3
sS'@arvindkejriwal day starts mr modi spreading hate he busy making india economic defence super powe'
p1114
g3
sS'fdi reforms defence civil aviation pharma fillip indius bilateral potential htt/www thedollarbusinesconews/fdrefor mto-push-indiaus-trade-usib47060 nmapp'
p1115
g3
sS'india seen scams defence bofors scam pds scams oil scams cash votes scam bu.. ht/ fm7sphofd0p'
p1116
g3
sS'pay pensions sloth eat india  defence funds economic times ht/ economictimeindiatimes.conews/defence/h opay-pensions-and-sloth-eat-up-indias-defence-fundarticleshow/5284346cms'
p1117
g3
sS'pm modi emphasizes defence cooperation india & thailand says terrorism threat societies ht/www newindianexpresconation/pmodi calls-for-strong-defence-maritime-ties-between-india-thailan2016/06/17/article348717ece @narendramodi'
p1118
g3
sS'tale quasfoe friend encircled common goal china comes india s defence wto debate ht/ liwww.livemint.c opol/af62e'
p1119
g3
sS'india s imminent entry #mtcr week seen diplomatic victory @pmoindia #missile #technology #defence #mannkibaat'
p1120
g3
sS'k yadev raw sponsored attacks indian defence minister blames pakistan attack india held kash ht/www dawconews/1267374'
p1121
g3
sS'india gave supersonic lonrange cruise missile programme indian defence research wing ht/ liidrw.org/lueqr'
p1122
g3
sS'defence minister india shri manohar parrikar ex professor iit mumbai indian cultur. proud pitwitter.comfmklgjnag'
p1123
g3
sS'#news india defence export hub parrikar ht/ bil293caq3 #economy ht/ fm7myloaw6d'
p1124
g3
sS'india thailand forge close ties defence maritime ndtv ht/ dlvilb6592'
p1125
g3
sS'pm modi calls strong defence maritime ties india thailand ht/www newindianexpresconation/pmodi calls-for-strong-defence-maritime-ties-between-india-thailan2016/06/17/article348717ece pitwitter.co4mb47vtw0z'
p1126
g3
sS'govt taken big step defence sector increasing fdi years india export hub defence mi'
p1127
g3
sS'payet credits france defence ht/ dlvilcspqj pitwitter.copuzzxzia63'
p1128
g3
sS'#india #kerala #malayalam #bollywood #hollywood ht/ livmalayalamsearch.curhttp//w wyoutube.cowatc_qj9hulegns defence minister govt committed r pitwitter.cogg8sq5qrkp'
p1129
g3
sS'earlier rahul lotus&nw india todaychannel trying 2build salman defencdid pay fr iboth actions r condemnable htt/ twittecoindiatoday/sta tu748546351386886146'
p1130
g3
sS'india thailand forge close ties defence maritime announcement mde prime ministernare.. ht/ bil1zwfxej'
p1131
g3
sS'#modiministry manohar parrikar launches india s integrated defence communication network ht/ ift29hxagu'
p1132
g3
sS'india clears deal buy 145 artillery guns bae systems india  defence procurement agency cleared .. ht/ bil28td9au'
p1133
g3
sS'india access 99% defence tech ht/ toii7dzfb9'
p1134
g3
sS'make india 16s 18s hunt new range fighter jets set defence ministry movi.. ht/ bil29rl8ju'
p1135
g3
sS'liberalised #fdi regime announced permits foreign direct investment 100% #defence sector #india .. ht/ fmbjstrekh'
p1136
g3
sS'make india international defence companies dictate terms 100%fdi govt able htt/ twittecomannu5589/stat u744885581054783489'
p1137
g3
sS'india considers additional 3unit hawk buy india s defence ministry considering acquisition a.. ht/ bil291jlfx'
p1138
g3
sS'gold continues rise ht/ galatimcocharts/gold.ht ml headache india r.t deficits unlike defence & oil imports technology help'
p1139
g3
sS'induction india fighter jet #tejas great leap defence sector boost morale iaf #transformingindia'
p1140
g3
sS'india access 99 pc defence tech ht/ ift28wesqb #orissa'
p1141
g3
sS'india thailand boost defence ties ht/www vietnambreakingnewco2016/06/india thailanboost-defence-ties'
p1142
g3
sS'india #openeconomy world fdi says pm #modi 100% #fdi #aviation #defence'
p1143
g3
sS'pay pensions sloth eat india  defence funds money gets wasted #economy ht/ wordlincol/3ho1s pitwitter.coomwrnhhceg'
p1144
g3
sS'india tesfires new surface 2 air missile jointly developd wth israel 4m defence base odisha coast cn neutralise aerial threats'
p1145
g3
sS'@jhon_adel @manoharparrikar mr defence minister realise india rape capital worl'
p1146
g3
sS'india thailand forge close ties defence maritime new delhi india thailand today decided .. ht/ bingei1tavrnx'
p1147
g3
sS'@ndtv russia important partner india share defence technology make india project'
p1148
g3
sS'new liberal canada push ties india indian defence review ht/ licom/0df8t'
p1149
g3
sS'india access 99% defence tech ht/ shrticlgqvwrj72 @inshorts 99 shd b 1000 percent india deserves'
p1150
g3
sS'potential defence cooperation papua new guinea india ht/www idsiidsacomments/d efenccooperation-papua-new-guinea-india_sbmaharaj_280616 #pngdf #defense pitwitter.coekb6aobvu5'
p1151
g3
sS'india biggest importer defence hardware exposed india producing hardware make india htt/ twittecolaluprasadrjd/ statu745230706889101312'
p1152
g3
sS'euro 2016 belgium hurt depleted defence golden generation chance ht/ gogfb/1euylx'
p1153
g3
sS'rt mahaveerm_ india 2 access 2 99% defence technologies thank u narendramodi 4 ur impeccable br pitwitter.co9bm3irfk40'
p1154
g3
sS'defence fdi reforms unshackle sector make india hub ht/ ift28l52zb'
p1155
g3
sS'defence fdi reforms unshackle sector make india manufacturing hub @mukulagarwal66 ht/ firstpost.cobusiness/fdr eformgovt-has-unshackled-defence-to-make-india-manufacturing-hub-284666html'
p1156
g3
sS'time come india supply defence equipment neighbouring countries china mangolia vietnam #boycottchineseproducts'
p1157
g3
sS'india taiwan relations asia future institute defence studies analyses ht/www idsibook/inditai warelations-in-asia-and-beyondv2q60fyrngu.twitter'
p1158
g3
sS'big bang fdi reforms defence dth retail india open economy fdi 10 ke.. ht/ liwww.abplive.in india/wry5j @amitsurg'
p1159
g3
sS'awesome sir india  defence industry scaling new heights guidance htt/ twittecomanoharparrika status/744185385153003520'
p1160
g3
sS'defence minister @manoharparrikar hand #varunastra torpedo indian navy tomorrow @drdo_ india ht/ dlvilgsbkg'
p1161
g3
sS'india access 99% defence ht/ hindustantimes.coworlnewspape indito-access-99-of-us-defence-tech/story-mbmce7dlwmra74jwpcgklhtml @usandindia @usambindia'
p1162
g3
sS'big reform push #nda govt #fdi'
p1163
g3
sS'#fdi reforms govt unshackled defence make india manufacturing hub ht/ bil28kitue pitwitter.cout2fvirm04'
p1164
g3
sS'india thailand forge close ties defence maritime navhind times ht/ gogfb/7crsfz'
p1165
g3
sS'india access 99% defence tech ok 1% 100% ? modi answer ht/www ecotiau1iyy'
p1166
g3
sS'#india double entry #evisa #thai nationals increase #defence cooperation ht/ olv1jx301mwqe pitwitter.cofrflbrx2z7'
p1167
g3
sS'@smitaprakash & allowing 100% fdi indian defence sector danger arise india futur? !'
p1168
g3
sS'#7reasonsforbrexit 3 biggest demand market products services china & india defence management financial'
p1169
g3
sS'judiciary fails india fails ehsan jafri fails gulberg society criminalises self defence ht/ fm7x3dqhakn'
p1170
g3
sS'senate fails pass amendment boost india s defence sales ht/ ift1ufmvph'
p1171
g3
sS'retweeted et defence @etdefence india  #nsg bid foreign secretary s jaishankar leaves #seoul .. ht/ fm5hh5d8r3w'
p1172
g3
sS'india allows upto 100 percent foreign direct investment defence sector statement'
p1173
g3
sS'india 3rd powerful navy world 2030 ht/ newsmilitarcos/unhaa @defence _news'
p1174
g3
sS'@sv99999 @arunjaitley previous ministers welcomed defence mfg facilities india mean ending free foreign trip..2'
p1175
g3
sS'afghanistan india  support strengthening defence capabilities syed akbaruddin indian .. ht/ olonpv501dadi'
p1176
g3
sS'defence bla bla channel.everything corporate worlnothing happen aam public india . cares'
p1177
g3
sS'india fast track critical defence deals including 400 ht/ theresurgentindico400-deal-fas ttracked @vuukle @rwac48'
p1178
g3
sS'believe man defence minister india point tim!! u agree @tajinderbagga si? htt/ twittecoani_news/statu 744881225370742785'
p1179
g3
sS'#modiministry pay pensions sloth eat india  defence funds money gets wasted ht/ ift28kuuoc'
p1180
g3
sS'defence raghuram rajan bit late congress free pressjournal htt/ indbreakinwordpress.co2016/06/28/def encof-raghuram-rajan-bit-too-late-congress-free-press-journal'
p1181
g3
sS'#india fdi reforms defence experts term government ndtv ht/ gogfb/uhbwxt #topstories'
p1182
g3
sS'india scripted history saturday defence minister manohar parrikar formally commissioned women fighte.. ht/ fm80ltlzwcj'
p1183
g3
sS'dharna party india #baharaaokejriwal #defence #justice4mmkhan #tohchaleinkyamumbai mm khan mm kha"'
p1184
g3
sS'vayu aerospace review published new delhi #india 1974 vayu aerospace defence review ht/ roveebay.corover/1/7153 2019255-icep_ff9&pub=5575101285&toolid=10001&campid=5337851710&customid=topproductsusa&icep_uq=vayaerospace+review&icep_sellerid=&icep_ex_kw=&icep_sortby=12&icep_catid=&icep_minprice=&icep_maxprice=&ipn=psmain&icep_vectorid=229466&kwid=902099&mtid=824&kw=lg'
p1185
g3
sS'1 dear @swarajyamag brits conducted holocaust artificial famines times india defence regime unacceptable'
p1186
g3
sS'india s defence production needs brahmolike projects ht/ swarajyamacodefence/indias defence-production-needs-many-more-brahmos-like-projects'
p1187
g3
sS'raghuram rajans parents pained delayed defence govt ht/ ift291vjtj #topnews #india'
p1188
g3
sS'india allow 100% foreign ownership defence civil aviation sectors ht/ fliigz5hu'
p1189
g3
sS'india allow 100% foreign ownership defence civil aviation sectors ht/ fliiihleu'
p1190
g3
sS'fdi defence cost nairmala sitharaman ht/ fm2otlrqm88'
p1191
g3
sS'foolish #chinaexposed pushing india india access 99% defence tech says obama admin ht/ ecotia6sxya "'
p1192
g3
sS'100% fdi defence absolutely essentiadelayed realisation answer enhance defence manufacturing india ht/ toi76a_qa'
p1193
g3
sS'logic 99% defence technology india capable sustaining proportion tech ?'
p1194
g3
sS'despite defence linkages india us-eu political interchanges goal waiting ht/ gogfb/aowzax #forex'
p1195
g3
sS'proud succesful missile test boost india s defence president drdo ht/ indianexprescoarticle/india/ indinews-indiproud-of-succesful-missile-test-fire-boost-indias-defence-president-mukherjee-to-drdo-2887765/ #newssuite ht/ bilnewssuiteapp'
p1196
g3
sS'big reforms government introduces 100% fdi defence civil aviation wave #liberlisation htt/ lnkifniff2x'
p1197
g3
sS'india tesfires new surfacto-air missile [developed israel] defence base odisha ht/ indianexprescoarticle/india/ indinews-indiindia-test-fires-new-surface-to-air-missile-from-defence-base-off-odisha-coast-2884889/ pitwitter.co7oer6q4lph'
p1198
g3
sS'supersonic brahmos integrated sukhoi mark 3.. unique feat india  defence engineer'
p1199
g3
sS'positive india improved jabbing flat stick aussies unable pass indian defence'
p1200
g3
sS'#india eases #foreignequity norms #defence #aviation #retail ht/ oli6ew301r6lm pitwitter.co4cfveb4ode'
p1201
g3
sS'india makes advances defence security pakistan fears possible arms race @ajit_dobhal'
p1202
g3
sS'india invest defence capacity trough fdi country attract india itsel'
p1203
g3
sS'indii internal securitops flawed ministries home & defence ops conducted hq ministr'
p1204
g3
sS'defence deal cards india buy 15 shinmaywa aircraft japan htt/ lnkie2kps25'
p1205
g3
sS'india access 99% defence technologies says official'
p1206
g3
sS'#100% fdi defence imp note fine print access art india dampener htt/ twitteconsitharaman/st atu744827459581816832'
p1207
g3
sS'book indian defence industry agenda making india copy available ht/ idsibook/indiade fencindustry_lkbehera'
p1208
g3
sS'china come forward help india nsg bid defence expert ht/ chilif8486e6 #news #breakingnews'
p1209
g3
sS'india access 99% defence technologies says official ht/ toibp3vpb htt/ amtwimg.cov/98c7ccbb97 4e0e-adca-a1cbc1e75170'
p1210
g3
sS'india  aesa rada..dream reality ht/ fm79zaginto'
p1211
g3
sS'bayghairat baysharam indian defence minister blames pakistan attack india held kashmir ht/www dawconews/1267374'
p1212
g3
sS'pics india  women fighter pilots defence minister manohar parrikar formally commissione.. ht/ fm2hjm4x0lt'
p1213
g3
sS'#usindia india access ~ 99% defence technologies par w treaty allies ht/ reahbgzl pitwitter.cospdsa4ssue'
p1214
g3
sS'maritime security india thailand deepen maritime defence ties india thailand deepen maritime defe.. ht/ bil1v2sjlj'
p1215
g3
sS'yes provide autonomy 2 states india let uniocentre limited defence external affair #federalism #brexit htt/ twittecoarvindkejriwal status/746257913849745408'
p1216
g3
sS'current affairs 2 july 2016 india s integrated defence communication network ht/ gogfb/couwuy'
p1217
g3
sS'#india #defence export hub @manoharparrikar ht/ oludju301egbh pitwitter.copnjempmrdd'
p1218
g3
sS'@narendramodi @manoharparrikar @rwac48 defence sector make india make india time @gurmeetkanwal @atahasnain53'
p1219
g3
sS'@jhasanjay fdi means brining manufacturing india anyways dependent outsiders defence matters isnt si'
p1220
g3
sS'india major defence partner access 99% defence technologies modi haters like #nsg lol ht/ economictimes.conews/defence/i ndito-get-access-to-almost-99-of-us-defence-technologies-says-obama-administration-officiaarticleshow/5292346cms'
p1221
g3
sS'#india #kerala #malayalam #bollywood #hollywood ht/ livmalayalamsearch.curhttp//w wyoutube.cowatckcznip2deq8 100% fdi defence aviation damage cont pitwitter.covpdfpo6azx'
p1222
g3
sS'india access 99% defence hindustan times ht/ dlvilfzhr3'
p1223
g3
sS'india thailand explore defence industry collaboration india thailand agreed expand defence .. ht/ bingei28ifdpm'
p1224
g3
sS'brilliant india 1st hal..great defence @16sreejesh rock solid hopefully continue #indvsaus'
p1225
g3
sS'india allow 100% foreign ownership defence civil aviation sectors ht/ gcop/4m4qcmsh are_androidapp_tweet'
p1226
g3
sS'@crystalmet indian dream broke. india wanted financial support usa defence .lol @zari_gee @wiseguy70 @hstapanghosh'
p1227
g3
sS'defence ministry gives purchase 145 ultrlight howitzers times india india samachar portal ht/ olxjdf301e95k'
p1228
g3
sS'does #tejas mark beginning domestic defence production pointer india  limited capabilities marks new era'
p1229
g3
sS'retweeted narendramodi_in @narendramodi_in pm modi emphasizes defence cooperation india .. ht/ fm81cgkbzlh'
p1230
g3
sS'#india likely test launch new surfacto-air missile defence base #odisha coast wednesday ht/www hindustantimecoindinews/ind ilikely-to-test-launch-new-missile-tomorrostory-kx2snrnp4ub4lwkjwra67html'
p1231
g3
sS'manohar parrikar launches india  integrated defence communication network india  integrate.. ht/ fm53gsln8xn'
p1232
g3
sS'arunachal govt defence ministry tussle infra projects ht/ gogd63a5z #news #india pitwitter.cooudjxtftad'
p1233
g3
sS'wonderful #ramadan gift boeing defence india @thielschristian @waheedashraf1 @wiseguy70 @defenceaviation htt/ twittecodefencelive/st atu744124315465973760'
p1234
g3
sS'defence ministry nod buy 145 ultra light howitzers @drdo_ india ht/ gogav4bck pitwitter.comcdvavonrg'
p1235
g3
sS'india access 99% defence technologies says official .. 1% point contention media'
p1236
g3
sS'senate fails pass amendment boost india s defence sales ht/ ift1ufdc8j'
p1237
g3
sS'india thailand forge close ties defence cyber security economy image prime minister narendra modi .. ht/ bingei1xu6cwk'
p1238
g3
sS'india access 99% defence tech 1% left rahul gandhi use hastag #failledmodidiplomacy'
p1239
g3
sS'india myanmar-thailand highway strategic dimensions indian defence review ht/ licom/6utgw'
p1240
g3
sS'humiliating foriegn diplomatic policy failure nsg extracted pharma nuclear defence aero bussiness & india sold respect'
p1241
g3
sS'@narendramodi @manoharparrikar pl set new r&d unit 4 aml 4 defence sec @drharshvardhan @yschowdary @drdo_ india htt/ twittecohire_ai/status 748479176034836480'
p1242
g3
sS'rt @manoharparrikar #india largest defence #fdi jv #tata & #boeing make fuselage apache pitwitter.cobpw8fvgct8 #fdi'
p1243
g3
sS'raisina tattle parrikar pushes defence ties southeast asia dailymail htt/ indbreakinwordpress.co2016/06/24/rai sintattle-parrikar-pushes-defence-ties-in-southeast-asia-daily-mail'
p1244
g3
sS'#modiwinsmtcr mtcr membership big boost make india india export hub defence @narendramodi pitwitter.cocd5rgvifnm'
p1245
g3
sS'india got defence minister retaliation nonsence pakis #pamporeattack @manoharparrikar rocks'
p1246
g3
sS'white house india country outside formal treaty allies access 99% defence technologie'
p1247
g3
sS'@ani_news promises make weapons india there 100% fdi defence'
p1248
g3
sS'slumbering tiger roaring dragon india  defence stacks biggest regional competitor china ht/ economictimeindiatimes.conews/defence/s lumberintiger-roaring-dragon-how-indias-defence-stacks-up-against-its-biggest-regional-competitor-chinarticleshow/5266911cms'
p1249
g3
sS'#india big bang reforms 2 fdi norms eased pharma aviation defence ndtv ht/ gogfb/wxvcyg'
p1250
g3
sS'superb defence india 1st half difference positive approach overall @16sreejesh superstar #hct2016 #final'
p1251
g3
sS'fdi defence aviation'
p1252
g3
sS'iaf makes history india  women fighter pilots wings event reviewed defence minister .. ht/ liintoday.in/h2n dp'
p1253
g3
sS'extended warm welcome kachchh @manoharparrikar ji minister defence government india @manji_ahir pitwitter.co8b9qrcc1qi'
p1254
g3
sS'know indian constitution constitution world hv provisions defence india'
p1255
g3
sS'@netaniti @justicenow2015 saw image senate voted making india strategic defence aprtner speech'
p1256
g3
sS'pv narsimha rao true engineer modern india placed india liberal economy path modernised defence naman htt/ twittecoarshpath/statu 747631182637064192'
p1257
g3
sS'major boost india s defence . india gets indigenous torpedo #varunastra weapon water pitwitter.cotdvqohldvy'
p1258
g3
sS'unless india develops domestic defence base going dragon difficult htt/ twittecoyugaparivartan status/747364821004394497'
p1259
g3
sS'india  1st integrated #defence communication network great job @manoharparrikar ji pitwitter.cofw8uikcfdx'
p1260
g3
sS'india thailand forge close ties defence maritime india thailand today decided ramp cooper.. ht/ bingei1v1kwjx'
p1261
g3
sS'previous govts gave thrust defence manufacturing india kickbacks defense deal big reason htt/ twittecorajeev_mp/stat u744884421849845760'
p1262
g3
sS'india allow 100% foreign ownership defence civil aviation sectors ht/ gu.colc7j38'
p1263
g3
sS'#big5at10 bofors agusta tatra & ardmel business defence deals india taint pitwitter.co1bpt1o5zup'
p1264
g3
sS'rhetoric development india @narendramodi bringing 100% fdi defence civil aviation pitwitter.coxyssbuskx7'
p1265
g3
sS'radical changes #fdi sector 100% fdi defence aviation ht/ bil28ldp9y #fdipolicy pitwitter.codjfkft7s9r'
p1266
g3
sS'india thailand forge close ties defence cyber security economy image prime minister narendra modi .. ht/ bingei1w4xde7'
p1267
g3
sS'defence news india commences work chabahar port'
p1268
g3
sS'defence f #zerowaste hindu ht/www thehindconews/cities/de lharticle755581ece #india #mycleanindia #awareness #technology #compost #machines #recycle #delhi'
p1269
g3
sS'#indiabiz india thailand forge close ties defence maritime ht/ dlvilb3gvd leads > ht/ gogvqjise'
p1270
g3
sS'joint statement issued mr modis visit did mention india major defence partner #nationalshamemodi'
p1271
g3
sS'hcl info implements india s integrated defence communication network information technology services .. ht/ bil29aesbc'
p1272
g3
sS'#modiministry india access 99% defence technologies ht/ ift291y9az'
p1273
g3
sS'iafs s30 mki tesflown brahmos missile 5 reasons important india s defence capability ht/www financialexprescoarticle/lifest ylscience/iafsu-30-mki-test-flown-with-brahmos-missile-system-5-reasons-why-its-important-for-indias-defence-capability/296796/v26p9q35goe.twitter'
p1274
g3
sS'pm modi calls strong defence maritime ties india thailand ht/www newindianexpresconation/pmodi calls-for-strong-defence-maritime-ties-between-india-thailan2016/06/17/article348717ece nmapp pitwitter.copo1k7jg5fi'
p1275
g3
sS'? nsg membership india tangible gains institute defence studies analyses balachandran ht/ ecotiwul3ca'
p1276
g3
sS'pay pensions sloth eat india  defence funds ht/ economictimeindiatimes.conews/defence/h opay-pensions-and-sloth-eat-up-indias-defence-fundarticleshow/5284346cms'
p1277
g3
sS'isbpl #news india defence export hub parrikar government taken steps defence sect.. ht/ bil2932fko'
p1278
g3
sS'sco india enters eurasia institute defence studies analyses ht/www idsipolicybrief/sc india-enters-eurasia_pstobdan_140616v2z06yigfez.twitter'
p1279
g3
sS'india country access 99% defence technologies ht/www ecotiau1iyy'
p1280
g3
sS'ground report feet firmly ground india  women fighter pilots 9 defence minister m.. ht/ bil1wu7bcs'
p1281
g3
sS'@timesnow india access 99% defence technologies says official sunthoooo congress modi did 2 year.against ..'
p1282
g3
sS'big reforms government introduces 100% fdi defence civil aviation times india ht/ upflocl/6qfu'
p1283
g3
sS'#modiwinsmtcr india  ambitious program deresearch proddeployment armed nonarmed drones 4 defence & spying boost'
p1284
g3
sS'manohar parrikar launches india  integrated defence communication network discussion msm abou.. ht/ fm7zmixoe2g'
p1285
g3
sS'100% fdi defence poses big threat national security & india s independent foreign policy def min ak antony'
p1286
g3
sS'777 ultra light howizters assembly line integration & test india bae systems jv mahindra defence'
p1287
g3
sS'india thailand forge close ties defence maritime ht/ in.co61af'
p1288
g3
sS'india buy 145 m777 howitzers defence ministry today approved mucdelayed purchase 145 ultral.. ht/ bil293st4f'
p1289
g3
sS'retweeted air defence alerts @airdefencenews glacier ice wall climbing training m & si auli #itbp .. ht/ fm4yxpidmsg'
p1290
g3
sS'pak r u watching usa support india access 99% defence technologies says official ht/ toibp3vpb @timesofindia'
p1291
g3
sS'senate doesnt approve amendment recognising india defence partner ht/www dawconews/1265365'
p1292
g3
sS'china difficult foil india  nsg bid defence expert ht/ dlvilfszrx'
p1293
g3
sS'aero india place bengaluru union defence minister just confirmed hal come witness official sortie htt 40'
p1294
g3
sS'#india fdi reforms defence experts term government ndtv ht/ gogfb/xnqpiv #topstories'
p1295
g3
sS'india likely govto-govt german deal submarine launch torpedos ht/ fm2tileole0'
p1296
g3
sS'india access 99% defence technologies & remaining 1% patent rights owned india buy 99%'
p1297
g3
sS'india fast track critical defence deals including 5 400 $6 bn ht/ irbth.coeconomics/defe nc2016/06/23/indito-fast-track-critical-defence-deals-including-s-400_605583 pitwitter.cox7mmyzoqes'
p1298
g3
sS'modi new air india flying fortress dodge missiles ht/www defencenewiarticle/travel linobama-style--modis-new-air-india-one-will-be-flying-fortress-that-can-dodge-missiles-6122 pitwitter.covswakzbefm'
p1299
g3
sS'india set access 99 cent latest defence technologies washington rec.. ht/ bil291rvxd'
p1300
g3
sS'brexit does matter india institute defence studies analyses ht/www idsiidsacomments/b rexidoes-it-matter-for-india_mathew-simon_170616v2ecjwm1gcs.twitter'
p1301
g3
sS'boeintata boost defence manufacturing parrikar ht/ ift1wtumij #india'
p1302
g3
sS'india access 99% defence technologieaccommodating aspirations @barackobama @c_ash15 @narendramodi ht/ economictimes.conews/defence/i ndito-get-access-to-almost-99-of-us-defence-technologies-says-obama-administration-officiaarticleshow/5292346cms'
p1303
g3
sS'basis modobama bromance @timesofindia india  defence supplier ht/ timesofindiindiatimes.coworld/uis-in diatop-defence-suppliearticleshow/5302192cms pitwitter.colgpyzpzfo1 "'
p1304
g3
sS'big reforms 100% fdi defence civil aviation ht/ ift28ixip7 #india'
p1305
g3
sS'defense india stocks howitzers defend border china new delhis defence mi.. ht/ bil295uaer #military'
p1306
g3
sS'india israel mediurange missile successfully tesfired defence blog ht/ bufl2975aki'
p1307
g3
sS'pay pensions sloth eat india  defence funds economic times ht/ ecoti7uotjy'
p1308
g3
sS'rt mahaveerm_ india 2 access 2 99% defence technologies thank u narendramodi 4 ur impeccable br pitwitter.co7fnyoghoma'
p1309
g3
sS'nsg membership important india institute defence studies analyses ht/ idsiidsacomments/w his-nsg-membership-important-for-india_asajjanhar_210616v2qhebatgin.twitter'
p1310
g3
sS'think revenues & employment defence manufacturing & exports frm india antony saab kya ho gaya hai aapko htt/ twittecoani_news/statu 744881502027059200'
p1311
g3
sS'senate fails pass amendment boost india s defence sales ht/ ift23isq7l'
p1312
g3
sS'fdi reforms push uindia trade ties usibc widened scope fdi norms defence civil aviation .. ht/ bil28lujit'
p1313
g3
sS'@retributions minority prevp/cj/ defence chief jindal haley 2 conver india far ahead @kanchangupta'
p1314
g3
sS'incindia responded pak aggression nation united defence mother india & ideals pitwitter.cofxijulbaeu'
p1315
g3
sS'@timesnow hours ago india s integrated defence communication network launcheread ht/ tmblcziimdk28euiuh pitwitter.co7yazfjixff'
p1316
g3
sS'india thailand join hands defence maritime security new delhi june 17 ians india thailand o.. ht/ bil1tashr5'
p1317
g3
sS'recognized india defence ht/ toibp3vpb'
p1318
g3
sS'defence boost makin- india htt/www pgurucodefencboost- makindia @pgurus1'
p1319
g3
sS'latest india news ht/ tinyurcohjdn97b defence ministry nod buy 145 ultra light .. ht/ tinyurcohxwno2h pitwitter.cozq8hqlkusp'
p1320
g3
sS'arms manufactured india bribes overseas course oppose #fdi #defence htt/ twittecofirstpost/stat u745837225028517888'
p1321
g3
sS'strong #defence ministry india #makeinindia #l &t ht/ gogf40wcz'
p1322
g3
sS'@rvaidya2000 @vijayvaani sarkari damat comes defence fm chairman cosy club india ht/ ecotiginmpz pitwitter.covmeixzythf'
p1323
g3
sS'india centre opens fdi defence civil aviation food processing seco.. ht/ bil28ixhxl #business #kerala'
p1324
g3
sS'@defence _news @iasura_ 2030 india thanks separatist maoist kejriwal'
p1325
g3
sS'india thailand forge close ties defence maritime announcement mde prime ministernare.. ht/ bil1zwfmmp'
p1326
g3
sS'govt relaxes fdi norms aviation defence makes way apple stores india news hindustan times ht/ hindustantimes.coindinews/mod govt-approves-up-to-100-fdi-in-defence-aviatiostory-gapkct3zjfwsmdsnv0et8html'
p1327
g3
sS'govt vows make india defence export hub ht/ lilnkd.in/6gljr'
p1328
g3
sS'modi india open economy world fdi translatewe sold soul highest foreign bidder 100% #fdi defence'
p1329
g3
sS'india takes pro indian thinking strong defence love ur pakistan @gfk04 htt/ twitteconinoqazi/statu 749244191432212481'
p1330
g3
sS'gov approves 100% fdi defence expected area foreign investors showing make india htt/ twittecojoydas/status/ 744818704236503040'
p1331
g3
sS'senate fails pass amendment boost india  defence sales ht/ ift1xzefm6'
p1332
g3
sS'modi govt s second big bang reforms experts say india defence hub ht/ businessworliarticle/modg ovs-second-big-bang-reforms-experts-say-india-can-become-defence-hub21-06-2016-99411v2oa0rb-rb4.twitter'
p1333
g3
sS'retweeted et defence @etdefence #india denies training north korean experts #ballistic technology a.. ht/ fm1m3zxttvq'
p1334
g3
sS'#achhedin india open #economy world fdi opening civil aviation defence & pharma htt/ twittecopti_news/statu 744833866620252160'
p1335
g3
sS'india  defence imports r highest world imagine jobs create 100% fd'
p1336
g3
sS'#tejas #indianairforce recentl3 women fighter pilots inducted indian defence ht/ bufl299l7tw pitwitter.covypb47zok4'
p1337
g3
sS'india s missile defence pakistan indian defence review ht/ licom/4fuai'
p1338
g3
sS'manohar parrikar launches india  integrated defence communication network discussion msm pitwitter.corg82t3zwi4'
p1339
g3
sS'india s mtcr membership expected facilitate high technology tie ups indian industry & defence programmes >mea #modiwinsmtcr'
p1340
g3
sS'india country outside treaty allies access 99% #defence technologies says official ht/ timesofindiindiatimes.coindia/indito get-access-to-99-of-us-defence-technologies-says-us-officiaarticleshow/5292428cms'
p1341
g3
sS'100% fdi defence aviation makes india open ht/ mynews.8m.d_et'
p1342
g3
sS'#india access 99% s. defence technologies white house official ht/ bil296qubh'
p1343
g3
sS'#india opens #fdi floodgates 100% #investment #goi approval #food products #defence #pharma brownfield #civil #aviation'
p1344
g3
sS'india defence export hub manohar parrikar says ht/ timesofindiindiatimes.coindia/indito be-made-defence-export-hub-manohar-parrikar-sayarticleshow/5292980cms @timesofindia'
p1345
g3
sS'100% fdi sectors like defence aviation & commerce surely make india sought destination savvy global investors'
p1346
g3
sS'india access 99% defence technologies says obama official ht/ ecotia6sxya #trustmodi #transformingindia'
p1347
g3
sS'supreme example #makeinindia #congratulations #hal #htt40 #india #defence #planes #manufacturing #humanresources htt/ twittecomanoharparrika status/743951067721904129'
p1348
g3
sS'government taken big step defence sector increasing fdi make india export hub ani quotes @manoharparrikar'
p1349
g3
sS'senate fails pass amendment boost india s defence sales ht/ ift1ovdm46'
p1350
g3
sS'india bites reforms apple eases #fdi norms defence aviation single brand retail ht/ dnaidqhy'
p1351
g3
sS'changes india open economy world #fdi 100% fdi #defence #aviation #pharma htt/ twittecotimesofindia/s tatu744842218603614212'
p1352
g3
sS'missile production seen increase country india planning export missiles said defence .. ht/ fm3xhqvnpik'
p1353
g3
sS'analysis brexit casts doubt new eu nato defence strategy reuters ht/ ift295g7ea #topnews #india'
p1354
g3
sS'bt_ india govt announces new #fdi rules opens defence civil aviation pharma ht/www businesstodaicurrent/policy govannounces-new-fdi-rules-opens-defence-civil-aviation-and-pharma/story/23397html pitwitter.coyerzwom3hi'
p1355
g3
sS'100% fdi defence good step encourage manufacture statof-the-art defence technology india break monopoly ofs dpsus drdo'
p1356
g3
sS'#india access 99% defence technologies says american official ht/ bil28zkb3h pitwitter.cot6p4c2huzt'
p1357
g3
sS'opposing fdi defence opposed 100% defence imports far worse india tech create job'
p1358
g3
sS'according ernst & young report 70% india s defence equipment obsolete close'
p1359
g3
sS'india access 99% defence technologiethe remaining 1% left #kejriwal blame mod'
p1360
g3
sS'india access 99 % usa defence technology becz firebrand diplomacy pm @narendramodi pitwitter.coqkrlh8haff'
p1361
g3
sS'#breakingnews india access 99% defence tech india country outside formal t.. ht/ bil29bjf3u'
p1362
g3
sS'india seeks purchase drones patrol vast indian ocean ht/www defencenewiarticle/india seekto-purchase-drones-from-us-to-patrol-the-vast-indian-ocean-6156 pitwitter.coh2ojhk0ofs'
p1363
g3
sS'@omar_quraishi bt usually listen spend 80% defence n share india  ratio defence budget'
p1364
g3
sS'historic day india `s women fighter pilots commissioned iaf today defence ministerm.. ht/ bil1zxed9s'
p1365
g3
sS'pm modi calls strong defence maritime ties india thailand ht/www newindianexpresconation/pmodi calls-for-strong-defence-maritime-ties-between-india-thailan2016/06/17/article348717ece pitwitter.co5hw1kpgpbu'
p1366
g3
sS'100% import defence 340% kickbacks family cogress defence policy india past 60 years htt/ twittecorajemanoj/stat u745815789840662528'
p1367
g3
sS'influential defence minister china recent past speaks news india htt/ twittecotimesofindia/s tatu744883498587021313'
p1368
g3
sS'india considering intentions duty govt india  defence minister make sure border tightly securemount arm'
p1369
g3
sS'#india allow 100% foreign ownership #defence civil #aviation sectors #fdi ht/ fliith0.t'
p1370
g3
sS'brexit hits sensex raghuram rajans rupee defence cushions impact ndtv htt/ indbreakinwordpress.co2016/06/24/bre xihits-sensex-but-raghuram-rajans-rupee-defence-cushions-impact-ndtv'
p1371
g3
sS'ht/ gog17mc8l #india #surfacetoairmissile #israel #defence #odishacoast #balasore'
p1372
g3
sS'360 defence htt/ youtb1fxu7ilnsjm #kravmaga #kravmagasobo #mumbai #selfdefence #womenselfdefense #training #india'
p1373
g3
sS'senate fails pass amendment boost india s defence sales ht/ ift1uozr3u'
p1374
g3
sS'india eases foreign equity norms defence aviation retail fdi 49 cent permitted .. ht/ bingei28pkxh5'
p1375
g3
sS'@yadvendar competition suppliers russia francis good india russia remain & important source defence systems'
p1376
g3
sS'#india kudos 100% fdi defence govt ignore cutting edge technology ht/ gogfb/sqlkfl'
p1377
g3
sS'senate fails recognise india strategic defence economic times mobile ht/ liindiatimes.com moh9j'
p1378
g3
sS'hope time india crack australian defence attac. best team india htt/ twittecomepratap/statu 743855991184195584'
p1379
g3
sS'india access 99% defence technologies says white house official ht/ gogiwchxc'
p1380
g3
sS'great day indian #defence history india air craft #tejas inducted airforce today proud nation'
p1381
g3
sS'india access 99% defence technologies india news hindustan times #smartnews ht/www hindustantimecoindinews/ind ito-get-access-to-almost-99-of-us-defence-technologiestory-aceh5x4p8lgv7tusj65qehtml'
p1382
g3
sS'nehru india unsc member global power ht/www defencenewiarticle/weri not-for-nehr-india-would-have-been-a-unsc-member,-global-power-already-6041 pitwitter.corsjxvre1he'
p1383
g3
sS'responded pak aggression nation united defence mother india & ideals built pitwitter.coqpi1svyeeh'
p1384
g3
sS'india  madman pm fascist feku pimping country lucrative defence sector western fdi htt/ twittecoetdefence/stat u746017756294721536'
p1385
g3
sS'poses big threat national security & india s independent foreign policy defence minister ak antony #fdi'
p1386
g3
sS'maldives opposition seeks active role india defence aviation post @vainujeheyge @kerafanaseem ht/ defenceaviationposcomaldiveoppos itioseeks-active-role-india'
p1387
g3
sS'govt relaxes fdi norms aviation defence #india ht/ toiv7imia'
p1388
g3
sS'india thailand join hands defence maritime security new delhi june 17 ians india thailand o.. ht/ bil1zwhpa4'
p1389
g3
sS'india israel military ties headache pakistan china ht/www defencenewiarticle/india israemilitary-ties-can-be-headache-for-pakista-china-6403 pitwitter.cowry4moc7re'
p1390
g3
sS'business india principal business applicant defence telecom pvt security info & broadcasting 2 #makeinindia'
p1391
g3
sS'india access 99% s. defence technologies white house official ht/ einnews.corctbumnwil'
p1392
g3
sS'#india #national defence minister parrikar hands torpedo varunastra" indian navy ht/ ift296wnow'
p1393
g3
sS'announced india major defence partner'
p1394
g3
sS'#india test launch new jointly developed #indo #israeli missile tomorrow ht/www defencenewiarticle.aspi 6319 @defence _news pitwitter.co5tfjwssb18'
p1395
g3
sS'india 16s radar thanks fdi indian defence research wing ht/ fm1pk4zc6yg'
p1396
g3
sS'considering rhetoric india right nuke england self defence right'
p1397
g3
sS'defence deals dont happen overnight manohar parrikar says times india ht/ wnncodefencdeals- donhappen-overnight-manohar-parrikar-says-times-of-indutm_sourcdlvit&utm_medium=twitter #wnn7'
p1398
g3
s.