(dp1
S'[17986, 14974, 5259, 409, 367, 184, 183, 125, 115]'
p2
I1
sS'[14974, 5259, 286, 183, 129, 100, 39, 23, 0]'
p3
I1
sS'[656, 324, 147, 0]'
p4
I1
sS'[17986, 14974, 5259, 4, 3, 0]'
p5
I1
sS'[14974, 5141, 80, 58, 3, 0]'
p6
I3
sS'[14974, 5259, 370, 366, 183, 115, 91, 27, 12]'
p7
I1
sS'[14974, 6169, 314, 165, 154, 91, 52, 39, 13]'
p8
I2
sS'[656, 188, 57, 52, 2, 1, 0, 0, 0]'
p9
I1
sS'[17986, 702, 656, 14, 2, 0, 0, 0, 0]'
p10
I1
sS'[14974, 5259, 183, 16, 8, 3, 0, 0, 0]'
p11
I1
sS'[14974, 5259, 76, 19, 1, 0, 0, 0, 0]'
p12
I1
sS'[17986, 14974, 5259, 179, 62, 34, 3, 0]'
p13
I1
sS'[17986, 14, 0, 0]'
p14
I3
sS'[14974, 6169, 643, 183, 134, 10, 10, 7, 4]'
p15
I2
sS'[14974, 6169, 107, 99, 30, 23, 4, 1, 0]'
p16
I2
sS'[14974, 5259, 702, 50, 30, 1, 0, 0, 0]'
p17
I1
sS'[14974, 5259, 972, 367, 181, 40, 3, 1, 0]'
p18
I1
sS'[14974, 5259, 702, 59, 58, 10, 9, 1, 0]'
p19
I1
sS'[17986, 702, 656, 183, 154, 29, 22, 0, 0]'
p20
I1
sS'[14974, 5259, 183, 22, 10, 8]'
p21
I1
sS'[14974, 150, 13, 4, 3, 2, 0, 0, 0]'
p22
I3
sS'[14974, 5141, 811, 339, 322, 57, 11, 1, 0]'
p23
I3
sS'[14974, 5259, 176, 168, 63, 4, 1, 0, 0]'
p24
I1
sS'[14974, 6169, 643, 243, 94, 87, 20, 14, 8]'
p25
I2
sS'[14974, 5259, 126, 76, 28, 28, 25, 18, 12]'
p26
I1
sS'[485, 150, 21, 9, 1, 0, 0]'
p27
I3
sS'[14974, 6169, 91, 44, 32, 24, 3, 2, 0]'
p28
I2
sS'[656, 57, 2, 0, 0, 0]'
p29
I1
sS'[14974, 6169, 367, 163, 129, 94, 57, 36, 21]'
p30
I2
sS'[14974, 5259, 140, 39, 30, 14, 2, 0, 0]'
p31
I1
sS'[14974, 5259, 240, 154, 105, 73, 51, 31, 5]'
p32
I1
sS'[14974, 5259, 702, 129, 81, 26, 0, 0]'
p33
I1
sS'[14974, 5141, 80, 52, 50, 28, 20, 13, 3]'
p34
I3
sS'[149, 113, 101, 74, 56, 2, 0, 0, 0]'
p35
I1
sS'[17986, 14974, 6169, 184, 115, 90, 17]'
p36
I2
sS'[850, 656, 46, 33]'
p37
I1
sS'[14974, 5259, 184, 183, 125, 115, 91, 84, 27]'
p38
I1
sS'[14974, 5259, 459, 144, 90, 85, 78, 52, 45]'
p39
I1
sS'[14974, 6169, 643, 298, 286, 90, 56, 48, 21]'
p40
I2
sS'[14974, 5259, 444, 183, 175, 115, 99, 27]'
p41
I1
sS'[17986, 14974, 5259, 370, 177, 76, 22, 16, 9]'
p42
I1
sS'[14974, 5259, 184, 58, 46, 14, 0, 0, 0]'
p43
I1
sS'[409, 10, 9, 1, 0, 0, 0]'
p44
I3
sS'[14974, 5259, 702, 240, 154, 64, 43, 26, 25]'
p45
I1
sS'[14974, 6169, 366, 0]'
p46
I2
sS'[14974, 6169, 152, 84, 81, 28, 20, 16, 0]'
p47
I2
sS'[14974, 5259, 0, 0, 0, 0, 0, 0, 0]'
p48
I1
sS'[14974, 5259, 702, 240, 227, 183, 154, 100, 74]'
p49
I1
sS'[339, 164, 149, 33, 7, 6, 0, 0]'
p50
I3
sS'[14974, 5141, 958, 224, 64, 35, 5, 0, 0]'
p51
I3
sS'[656, 175, 14, 3, 0, 0, 0]'
p52
I1
sS'[14974, 1753, 211, 176, 154, 93, 57, 30, 6]'
p53
I2
sS'[14974, 5141, 958, 6, 2, 0, 0]'
p54
I3
sS'[14974, 5259, 183, 152, 115, 27, 14, 5, 0]'
p55
I1
sS'[850, 324, 90, 13, 10]'
p56
I3
sS'[17986, 14974, 5259, 184, 183, 149, 38, 23, 22]'
p57
I1
sS'[14974, 6169, 276, 136, 18, 0, 0, 0, 0]'
p58
I2
sS'[164, 79, 63, 44, 33, 29, 13, 13, 12]'
p59
I3
sS'[656, 269, 63, 54, 47, 44, 23, 11, 7]'
p60
I1
sS'[6169, 1753, 234, 227, 103, 57, 13, 9, 4]'
p61
I2
sS'[656, 183, 53, 43, 40, 9, 5, 3, 3]'
p62
I1
sS'[14974, 5141, 356, 31, 25, 24, 1, 0, 0]'
p63
I3
sS'[656, 269, 266, 224, 0, 0, 0]'
p64
I1
sS'[2028, 127, 103, 69, 49, 1, 0, 0, 0]'
p65
I3
sS'[14974, 5259, 77, 38, 29, 23, 2, 0, 0]'
p66
I1
sS'[656, 176, 167, 50, 47, 1, 1, 0, 0]'
p67
I1
sS'[714, 269, 266, 224, 183, 72, 0, 0, 0]'
p68
I1
sS'[702, 64, 23, 0, 0, 0, 0, 0]'
p69
I1
sS'[14974, 5259, 459, 244, 112, 51, 41, 2, 0]'
p70
I1
sS'[14974, 167, 81, 77, 64, 38, 38, 0, 0]'
p71
I1
sS'[14974, 5259, 183, 115, 86, 50, 43, 27, 4]'
p72
I1
sS'[14974, 5259, 183, 152, 117, 64, 64, 58, 34]'
p73
I1
sS'[656, 483, 183, 24, 6, 1, 1, 0, 0]'
p74
I1
sS'[656, 48, 0, 0, 0, 0, 0]'
p75
I1
sS'[14974, 5259, 183, 115, 51, 27, 18, 0]'
p76
I1
sS'[14974, 5141, 251, 112, 60, 32, 26, 0, 0]'
p77
I3
sS'[656, 193, 183, 175, 64]'
p78
I1
s.