(dp1
S'[335, 37, 36, 27, 12, 1, 0, 0]'
p2
I3
sS'[605, 27, 8, 6, 2, 0, 0, 0, 0]'
p3
I3
sS'[17986, 14, 0, 0]'
p4
I3
sS'[14974, 6169, 643, 183, 134, 10, 10, 7, 4]'
p5
I2
sS'[374, 184, 125, 81, 37, 28, 20, 11, 11]'
p6
I3
sS'[2028, 189, 188, 131, 123, 55, 26, 9, 1]'
p7
I3
sS'[335, 189, 119, 54, 37, 27, 10, 6, 2]'
p8
I3
sS'[485, 116, 61, 38, 37, 31, 17, 3, 1]'
p9
I3
sS'[17986, 2028, 49, 37, 24, 0, 0]'
p10
I3
sS'[14974, 246, 52, 37, 36, 0, 0, 0]'
p11
I3
sS'[14974, 5141, 139, 112, 8, 8, 7, 4, 1]'
p12
I3
sS'[17986, 2028, 339, 84, 59, 7, 6, 0, 0]'
p13
I3
sS'[103, 43, 27, 9, 8, 3, 0, 0]'
p14
I3
sS'[14974, 5141, 149, 112, 79, 76, 70, 57, 19]'
p15
I3
sS'[14974, 5141, 75, 53, 7, 0, 0]'
p16
I3
sS'[126, 37, 35, 27, 7, 6, 1, 0, 0]'
p17
I3
sS'[143, 103, 83, 37, 27, 4, 2, 0, 0]'
p18
I3
sS'[324, 75, 37, 4, 3, 0, 0, 0, 0]'
p19
I3
sS'[27, 25, 3, 1, 0, 0]'
p20
I3
sS'[14974, 5141, 44, 2, 0]'
p21
I3
sS'[2028, 210, 58, 53, 4, 0, 0]'
p22
I3
sS'[14974, 5141, 958, 101, 13, 0, 0, 0]'
p23
I3
sS'[14974, 5141, 643, 21, 8, 1, 0, 0, 0]'
p24
I3
sS'[14974, 5141, 958, 189, 174, 59, 40, 12, 0]'
p25
I3
sS'[14974, 5141, 49, 30, 19, 1, 0, 0, 0]'
p26
I3
sS'[14974, 2028, 152, 58, 37, 35, 29, 21, 11]'
p27
I3
sS'[123, 49, 13, 1, 1, 0, 0, 0, 0]'
p28
I3
sS'[14974, 5141, 58, 15, 15, 11, 8, 4, 0]'
p29
I3
sS'[14974, 5141, 322, 19, 16, 3, 0, 0]'
p30
I3
sS'[138, 105, 27, 8, 4, 1, 0]'
p31
I3
sS'[14974, 5141, 67, 10, 1, 0, 0, 0, 0]'
p32
I3
sS'[14974, 5141, 958, 40, 23, 1, 0, 0, 0]'
p33
I3
sS'[14974, 5141, 175, 24, 11, 5, 1, 0]'
p34
I3
sS'[2028, 367, 58, 37, 0, 0, 0, 0]'
p35
I3
sS'[14974, 5141, 356, 322, 29, 22, 11, 8, 1]'
p36
I3
sS'[14974, 5141, 151, 53, 18, 15, 13, 4, 0]'
p37
I3
sS'[2028, 111, 94, 55, 41, 37, 16, 7, 0]'
p38
I3
sS'[5141, 2028, 339, 75, 42, 37, 11, 5, 0]'
p39
I3
sS'[14974, 5141, 958, 415, 215, 170, 86, 21, 0]'
p40
I3
sS'[444, 339, 57, 22, 19, 5, 0, 0, 0]'
p41
I3
sS'[14974, 5141, 958, 13, 13, 6, 1, 0, 0]'
p42
I3
sS'[83, 27, 3, 1, 0, 0]'
p43
I3
sS'[14974, 5141, 11, 3, 2, 0, 0, 0]'
p44
I3
sS'[67, 45, 37, 7, 4, 1, 0, 0, 0]'
p45
I3
sS'[89, 41, 37, 25, 1]'
p46
I3
sS'[14974, 5259, 972, 367, 181, 40, 3, 1, 0]'
p47
I1
sS'[14974, 5141, 958, 485, 339, 193, 15, 2, 0]'
p48
I3
sS'[14974, 5259, 183, 22, 10, 8]'
p49
I1
sS'[14974, 5141, 2028, 643, 105, 14, 0, 0, 0]'
p50
I3
sS'[14974, 5141, 643, 89, 1, 0, 0, 0, 0]'
p51
I3
sS'[121, 27, 3, 3, 0, 0]'
p52
I3
sS'[184, 49, 37, 29, 24, 23, 0]'
p53
I3
sS'[14974, 5141, 643, 177, 86, 61, 37, 18, 14]'
p54
I3
sS'[17986, 409, 94, 53, 50, 37, 7, 2, 1]'
p55
I3
sS'[72, 37, 35, 27, 19, 10, 0, 0, 0]'
p56
I3
sS'[1827, 56, 27, 4, 3, 0, 0]'
p57
I3
sS'[2028, 75, 13, 1, 0, 0]'
p58
I3
sS'[14974, 5141, 958, 25, 20, 0, 0]'
p59
I3
sS'[105, 90, 45, 37, 27, 12, 11, 2, 1]'
p60
I3
sS'[14974, 5141, 356, 322, 35, 16, 7, 3, 0]'
p61
I3
sS'[2028, 366, 101, 58, 37, 29, 16, 9, 7]'
p62
I3
sS'[14974, 5141, 346, 134, 44, 32, 30, 29, 12]'
p63
I3
sS'[27, 16, 11, 0]'
p64
I3
sS'[14974, 5141, 643, 556, 197, 30, 15, 0]'
p65
I3
sS'[14974, 5141, 958, 138, 34, 0, 0]'
p66
I3
sS'[17986, 37, 0, 0, 0, 0]'
p67
I3
sS'[14974, 5259, 702, 240, 227, 183, 154, 100, 74]'
p68
I1
sS'[280, 177, 69, 51, 50, 37, 25, 2, 0]'
p69
I3
sS'[14974, 5141, 643, 184, 46, 42, 37, 11, 9]'
p70
I3
sS'[14974, 5141, 444, 370, 324, 236, 125, 90, 74]'
p71
I3
sS'[2028, 13, 8, 0, 0]'
p72
I3
sS'[37, 10, 2, 0, 0]'
p73
I3
sS'[14974, 5141, 240, 227, 150, 128, 125, 67, 22]'
p74
I3
sS'[37, 23, 6, 0]'
p75
I3
sS'[14974, 5141, 958, 131, 87, 22, 0, 0, 0]'
p76
I3
sS'[14974, 5141, 247, 106, 103, 38, 25, 20, 12]'
p77
I3
sS'[17986, 14974, 5141, 107, 60, 56, 34, 4, 1]'
p78
I3
sS'[14974, 5141, 958, 189, 189, 0, 0, 0, 0]'
p79
I3
sS'[17986, 248, 58, 37, 21, 9, 6, 1, 0]'
p80
I3
sS'[18774, 14974, 5141, 643, 485, 18, 6, 5]'
p81
I3
sS'[17986, 2028, 83, 26, 12, 3, 0]'
p82
I3
sS'[247, 37, 30, 2, 0]'
p83
I3
sS'[14974, 5141, 958, 138, 34, 0, 0, 0, 0]'
p84
I3
sS'[339, 52, 36, 27, 1, 0]'
p85
I3
sS'[17986, 2028, 24, 6, 4, 3, 0]'
p86
I3
sS'[356, 74, 42, 37, 34, 18, 16, 15, 10]'
p87
I3
sS'[14974, 193, 147, 87, 37, 32, 0]'
p88
I3
sS'[14974, 5141, 958, 485, 106, 0]'
p89
I3
sS'[850, 37, 7, 1, 0]'
p90
I3
sS'[131, 75, 22, 19, 0, 0]'
p91
I3
sS'[656, 188, 57, 52, 2, 1, 0, 0, 0]'
p92
I1
sS'[14974, 5141, 958, 11, 0, 0, 0]'
p93
I3
sS'[14974, 5141, 958, 193, 61, 22, 2, 0, 0]'
p94
I3
sS'[17986, 2028, 850, 133, 56, 37, 27, 17, 0]'
p95
I3
sS'[14974, 5141, 67, 49, 32, 20, 16, 16, 3]'
p96
I3
sS'[79, 37, 27, 16, 15, 13, 2, 2, 1]'
p97
I3
sS'[14974, 27, 16, 8, 3, 1, 0]'
p98
I3
sS'[17986, 850, 179, 176, 133, 38, 37, 0, 0]'
p99
I3
sS'[17986, 168, 106, 99, 61, 55, 37, 11, 0]'
p100
I3
sS'[14974, 5141, 643, 339, 115, 72, 71, 4, 0]'
p101
I3
sS'[63, 37, 27, 14, 2, 1, 0]'
p102
I3
sS'[2028, 189, 89, 23, 16, 1, 1, 0]'
p103
I3
sS'[5141, 129, 112, 42, 37, 16]'
p104
I3
sS'[14974, 104, 50, 37, 9, 4, 0, 0, 0]'
p105
I3
sS'[14974, 5141, 485, 121, 36, 36, 29, 24, 14]'
p106
I3
sS'[17986, 2028, 339, 322, 37, 21, 0, 0, 0]'
p107
I3
sS'[14974, 2028, 79, 40, 12, 7, 0, 0, 0]'
p108
I3
sS'[374, 37, 27, 10, 5, 4, 2, 1]'
p109
I3
sS'[14974, 5141, 958, 20, 17, 3, 3, 3, 0]'
p110
I3
sS'[14974, 5259, 444, 183, 175, 115, 99, 27]'
p111
I1
sS'[311, 187, 61, 37, 29, 27, 0, 0, 0]'
p112
I3
sS'[2028, 224, 68, 37, 13, 3, 0, 0, 0]'
p113
I3
sS'[14974, 5141, 311, 66, 30, 29, 18, 18, 15]'
p114
I3
sS'[17986, 14974, 5141, 958, 61, 40, 0, 0, 0]'
p115
I3
sS'[2028, 485, 106, 59, 22, 8, 0]'
p116
I3
sS'[17986, 2028, 178, 106, 80, 74, 0]'
p117
I3
sS'[14974, 5141, 958, 8, 7, 1, 0, 0, 0]'
p118
I3
sS'[252, 52, 33, 27, 12, 9, 0, 0]'
p119
I3
sS'[14974, 5141, 571, 365, 346, 124, 68, 17, 13]'
p120
I3
sS'[14974, 5141, 643, 44, 18, 5, 1, 1, 0]'
p121
I3
sS'[17986, 2028, 168, 111, 37, 3, 0, 0]'
p122
I3
sS'[356, 139, 37, 31, 15, 10, 0]'
p123
I3
sS'[190, 152, 133, 121, 110, 79, 39, 38, 37]'
p124
I3
sS'[55, 39, 27, 2, 1, 0]'
p125
I3
sS'[38, 27, 10, 9, 4, 0]'
p126
I3
sS'[17986, 2028, 138, 37, 16, 14, 3, 3, 1]'
p127
I3
sS'[2028, 138, 106, 37, 14, 7, 3, 1, 0]'
p128
I3
sS'[14974, 5141, 643, 54, 28, 16, 2, 1, 0]'
p129
I3
sS'[17986, 14974, 5141, 643, 485, 224, 176, 46, 11]'
p130
I3
sS'[356, 75, 37, 34, 19, 7, 2, 1]'
p131
I3
sS'[14974, 210, 125, 118, 37, 28, 1, 0]'
p132
I3
sS'[14974, 5141, 958, 324, 27, 23, 18, 3, 2]'
p133
I3
sS'[14974, 5141, 958, 374, 56, 46, 22, 7, 0]'
p134
I3
sS'[14974, 5141, 958, 89, 34, 26, 2, 1, 0]'
p135
I3
sS'[2028, 150, 10, 2, 0, 0, 0]'
p136
I3
sS'[2028, 610, 260, 77, 73, 37, 25, 2, 0]'
p137
I3
sS'[14974, 5141, 346, 78, 59, 56, 53, 23, 0]'
p138
I3
sS'[2028, 134, 103, 84, 58, 37, 23, 8, 2]'
p139
I3
sS'[37, 29, 27, 25, 1, 0, 0]'
p140
I3
sS'[14974, 5141, 958, 97, 91, 1, 0, 0, 0]'
p141
I3
sS'[211, 92, 63, 59, 49, 37, 27, 16, 3]'
p142
I3
sS'[14974, 5141, 170, 39, 12, 6, 0, 0, 0]'
p143
I3
sS'[14974, 5141, 1753, 311, 243, 76, 35, 7, 0]'
p144
I3
sS'[656, 183, 53, 43, 40, 9, 5, 3, 3]'
p145
I1
sS'[17986, 37, 36, 4, 3, 1, 0]'
p146
I3
sS'[17986, 121, 89, 52, 41, 37, 35, 22, 0]'
p147
I3
sS'[149, 113, 101, 74, 56, 2, 0, 0, 0]'
p148
I1
sS'[643, 75, 66, 61, 37, 7, 0, 0, 0]'
p149
I3
sS'[210, 164, 83, 53, 52, 46, 37, 27, 9]'
p150
I3
sS'[370, 367, 27, 7, 7, 0, 0]'
p151
I3
sS'[115, 111, 83, 37, 12, 0, 0, 0, 0]'
p152
I3
sS'[14974, 5141, 958, 12, 0, 0, 0, 0]'
p153
I3
sS'[215, 170, 152, 56, 37, 22, 8, 5, 4]'
p154
I3
sS'[81, 58, 37, 35, 27, 16, 13, 7, 0]'
p155
I3
sS'[188, 37, 27, 17, 0, 0, 0, 0]'
p156
I3
sS'[14974, 5141, 571, 39, 7, 5, 5]'
p157
I3
sS'[55, 44, 37, 22, 19, 16, 10, 2, 0]'
p158
I3
sS'[14974, 5141, 643, 87, 66, 15, 9, 0, 0]'
p159
I3
sS'[5141, 2028, 87, 37, 29, 28, 0, 0, 0]'
p160
I3
sS'[14974, 958, 250, 149, 32, 9, 3, 0, 0]'
p161
I3
sS'[134, 74, 37, 36, 32, 27, 8, 7, 5]'
p162
I3
sS'[366, 189, 84, 37, 13, 7, 2, 2, 0]'
p163
I3
sS'[89, 27, 26, 7, 6, 3, 1, 1, 0]'
p164
I3
sS'[17986, 14974, 5141, 958, 25, 10, 2, 0, 0]'
p165
I3
sS'[14974, 5141, 126, 103, 84, 23, 15, 12, 5]'
p166
I3
sS'[37, 10, 9]'
p167
I3
sS'[409, 10, 9, 1, 0, 0, 0]'
p168
I3
sS'[147, 27, 20, 5, 0, 0, 0]'
p169
I3
sS'[6169, 1753, 234, 227, 103, 57, 13, 9, 4]'
p170
I2
sS'[14974, 5141, 958, 224, 2, 1, 0]'
p171
I3
sS'[29, 27, 0, 0, 0]'
p172
I3
sS'[14974, 5141, 151, 42, 18, 13, 8, 8, 0]'
p173
I3
sS'[100, 61, 16, 7, 3, 0, 0]'
p174
I3
sS'[714, 269, 266, 224, 183, 72, 0, 0, 0]'
p175
I1
sS'[14974, 5141, 356, 215, 58, 18, 13, 0, 0]'
p176
I3
sS'[14974, 5141, 571]'
p177
I3
sS'[2028, 168, 37, 36, 6, 0, 0, 0, 0]'
p178
I3
sS'[335, 56, 27, 23, 16, 12, 3, 2, 0]'
p179
I3
sS'[17986, 14974, 2028, 162, 75, 37, 15, 13, 10]'
p180
I3
sS'[14974, 5141, 139, 112, 7, 4, 1, 1, 0]'
p181
I3
sS'[137, 74, 34, 29, 27, 9, 8, 3, 0]'
p182
I3
sS'[89, 37, 19, 13, 13, 2, 0, 0, 0]'
p183
I3
sS'[14974, 5141, 459, 240, 168, 58, 2, 1, 0]'
p184
I3
sS'[972, 247, 138, 74, 59, 52, 37, 32, 27]'
p185
I3
sS'[101, 67, 37, 27, 0, 0, 0]'
p186
I3
sS'[1091, 89, 22, 0]'
p187
I3
sS'[14974, 5141, 958, 485, 374, 189, 123, 4, 3]'
p188
I3
sS'[0, 0]'
p189
I3
sS'[5141, 2028, 275, 112, 37, 19, 1, 0, 0]'
p190
I3
sS'[5141, 247, 37, 15, 14, 5, 3, 0, 0]'
p191
I3
sS'[86, 37, 12, 8, 5, 0]'
p192
I3
sS'[75, 27, 19, 14, 8, 0, 0, 0]'
p193
I3
sS'[485, 150, 21, 9, 1, 0, 0]'
p194
I3
sS'[246, 115, 52, 37, 36, 0, 0, 0, 0]'
p195
I3
sS'[14974, 5141, 958, 370, 24, 21, 8, 8, 0]'
p196
I3
sS'[14974, 5141, 958, 82, 58, 47, 39, 38, 37]'
p197
I3
sS'[14974, 2028, 189, 177, 33, 30, 2, 0]'
p198
I3
sS'[14974, 5141, 958, 367, 13, 3, 3, 0, 0]'
p199
I3
sS'[14974, 5141, 958, 335, 298, 89, 1, 0, 0]'
p200
I3
sS'[17986, 14974, 5141, 958, 367, 131, 24, 5, 2]'
p201
I3
sS'[14974, 5141, 958, 131, 106, 73, 0, 0, 0]'
p202
I3
sS'[83, 37, 17, 5, 1, 0, 0, 0, 0]'
p203
I3
sS'[149, 106, 37, 27, 27, 6, 5, 0, 0]'
p204
I3
sS'[101, 55, 37, 15, 5, 4, 0, 0, 0]'
p205
I3
sS'[121, 37, 26, 5]'
p206
I3
sS'[485, 61, 58, 0]'
p207
I3
sS'[14974, 5141, 141, 20, 12, 11, 6, 4, 2]'
p208
I3
sS'[17986, 14974, 5141, 958, 150, 86, 22, 1, 0]'
p209
I3
sS'[18774, 81, 51, 37, 33, 18, 14, 13]'
p210
I3
sS'[14974, 5141, 356, 42, 31, 22, 6, 1, 0]'
p211
I3
sS'[14974, 5141, 170, 72, 56, 11, 9, 5, 0]'
p212
I3
sS'[367, 189, 176, 90, 78, 78, 37, 9, 9]'
p213
I3
sS'[14974, 5141, 958, 135, 92, 35, 6, 2, 1]'
p214
I3
sS'[374, 219, 78, 76, 38, 37, 34, 17, 16]'
p215
I3
sS'[14974, 5141, 958, 333, 224, 27, 2, 1, 1]'
p216
I3
sS'[2028, 40, 29, 13, 0, 0]'
p217
I3
sS'[2028, 149, 103, 44, 10, 4, 0, 0]'
p218
I3
sS'[112, 28, 27, 13, 2, 2, 1, 0]'
p219
I3
sS'[14974, 6169, 643, 298, 286, 90, 56, 48, 21]'
p220
I2
sS'[2028, 339, 211, 59, 57, 37, 36, 7, 5]'
p221
I3
sS'[14974, 5141, 958, 339, 67, 49, 28, 13, 0]'
p222
I3
sS'[339, 164, 149, 33, 7, 6, 0, 0]'
p223
I3
sS'[17986, 14974, 5141, 34, 12, 11, 0, 0, 0]'
p224
I3
sS'[2028, 66, 39, 32, 28, 18, 14, 3, 0]'
p225
I3
sS'[17986, 14974, 5259, 409, 367, 184, 183, 125, 115]'
p226
I1
sS'[160, 47, 34, 27, 0, 0, 0]'
p227
I3
sS'[14974, 5141, 251, 151, 24, 18, 13, 6, 0]'
p228
I3
sS'[42, 37, 20, 19, 14, 4, 1, 1, 0]'
p229
I3
sS'[370, 63, 55, 49, 37, 27, 0, 0]'
p230
I3
sS'[367, 162, 106, 43, 37, 15, 3, 2, 1]'
p231
I3
sS'[179, 134, 107, 101, 81, 58, 44, 37, 35]'
p232
I3
sS'[37, 22, 7, 1, 0, 0, 0]'
p233
I3
sS'[14974, 5141, 298, 115, 23, 23, 22, 19, 0]'
p234
I3
sS'[83, 57, 27, 6, 5, 0, 0, 0]'
p235
I3
sS'[17986, 2028, 485, 52, 11, 0, 0]'
p236
I3
sS'[2028, 610, 266, 193, 150, 123, 62, 44, 37]'
p237
I3
sS'[14974, 2028, 189, 99, 37, 35, 30, 15, 7]'
p238
I3
sS'[14974, 370, 367, 189, 143, 103, 69, 37, 32]'
p239
I3
sS'[14974, 5141, 571, 61, 25, 0, 0, 0]'
p240
I3
sS'[90, 61, 37, 20, 14, 6, 6, 5, 3]'
p241
I3
sS'[131, 37, 28, 27, 25, 22, 17, 15, 12]'
p242
I3
sS'[14974, 5141, 356, 54, 13, 5, 0, 0, 0]'
p243
I3
sS'[14974, 5141, 115, 58, 35, 8, 0, 0, 0]'
p244
I3
sS'[14974, 5141, 2028, 73, 65, 16, 3, 0, 0]'
p245
I3
sS'[17986, 2028, 485, 176, 150, 147, 137, 53, 7]'
p246
I3
sS'[366, 339, 251, 115, 103, 89, 37, 22, 17]'
p247
I3
sS'[17986, 444, 58, 37, 28, 20, 11, 0]'
p248
I3
sS'[37, 27, 0, 0, 0, 0, 0]'
p249
I3
sS'[131, 57, 36, 27, 4, 0, 0]'
p250
I3
sS'[37, 27, 26, 14, 13, 12, 10, 0]'
p251
I3
sS'[269, 83, 49, 39, 37, 36, 34, 6, 1]'
p252
I3
sS'[37, 32, 31, 5, 0]'
p253
I3
sS'[2028, 95, 20, 15, 9, 1, 0, 0]'
p254
I3
sS'[972, 131, 37, 27, 1, 1, 0, 0]'
p255
I3
sS'[17986, 485, 89, 37, 14, 12, 9, 9]'
p256
I3
sS'[17986, 14974, 5141, 958, 216, 67, 30, 10, 8]'
p257
I3
sS'[210, 53, 46, 37, 24, 4, 3, 3, 1]'
p258
I3
sS'[14974, 5143, 87, 79, 75, 37, 28, 11, 6]'
p259
I3
sS'[17986, 14974, 5141, 643, 370, 86, 75, 11, 7]'
p260
I3
sS'[14974, 5141, 485, 65, 16, 5, 1, 1, 0]'
p261
I3
sS'[17986, 14974, 5141, 643, 339, 6, 5, 1, 0]'
p262
I3
sS'[14974, 2028, 40, 16, 13, 3, 3, 0, 0]'
p263
I3
sS'[656, 176, 167, 50, 47, 1, 1, 0, 0]'
p264
I1
sS'[37, 21, 0, 0, 0, 0]'
p265
I3
sS'[246, 37, 36, 15, 10, 2, 0, 0, 0]'
p266
I3
sS'[37, 27, 0, 0, 0]'
p267
I3
sS'[35, 32, 27, 24, 8, 6, 5, 0]'
p268
I3
sS'[14974, 5259, 140, 39, 30, 14, 2, 0, 0]'
p269
I1
sS'[14974, 5141, 2028, 90, 54, 28, 24, 19, 18]'
p270
I3
sS'[14974, 5141, 643, 123, 103, 27, 8, 2, 1]'
p271
I3
sS'[14974, 5141, 109, 64, 43, 4, 0]'
p272
I3
sS'[17986, 14974, 5141, 643, 24, 18, 16, 2, 0]'
p273
I3
sS'[14974, 5141, 250, 106, 46, 39, 17, 16, 7]'
p274
I3
sS'[14974, 5141, 441, 189, 119, 105, 50, 45, 32]'
p275
I3
sS'[14974, 5141, 144, 140, 25, 9, 0, 0, 0]'
p276
I3
sS'[14974, 5141, 132, 50, 18, 4, 0, 0]'
p277
I3
sS'[14974, 5141, 958, 605, 339, 322, 144, 3, 0]'
p278
I3
sS'[5141, 409, 61, 22, 11, 10, 0, 0, 0]'
p279
I3
sS'[27, 3, 0, 0, 0]'
p280
I3
sS'[17986, 14974, 5141, 958, 20, 15, 0, 0, 0]'
p281
I3
sS'[247, 234, 111, 65, 58, 37, 27, 21, 12]'
p282
I3
sS'[176, 137, 89, 84, 38, 37, 22, 0, 0]'
p283
I3
sS'[14974, 5141, 958, 605, 339, 322, 144, 35, 3]'
p284
I3
sS'[14974, 5141, 958, 224, 64, 35, 5, 0, 0]'
p285
I3
sS'[14974, 5141, 177, 170, 72, 56, 11, 0, 0]'
p286
I3
sS'[14974, 5141, 958, 339, 15, 0, 0, 0]'
p287
I3
sS'[2028, 61, 16, 7, 0, 0]'
p288
I3
sS'[14974, 5141, 113, 49, 28, 2, 1, 0, 0]'
p289
I3
sS'[131, 123, 74, 27, 10, 3, 0, 0]'
p290
I3
sS'[101, 28, 28, 7, 0]'
p291
I3
sS'[339, 27, 22, 17, 16, 5, 2, 0, 0]'
p292
I3
sS'[485, 103, 68, 57, 37, 12, 0, 0, 0]'
p293
I3
sS'[356, 61, 37, 28, 7, 5, 2, 0]'
p294
I3
sS'[14974, 5141, 356, 60, 33, 25, 17, 3, 1]'
p295
I3
sS'[14974, 5141, 105, 68, 22, 17, 2, 0, 0]'
p296
I3
sS'[17986, 485, 179, 76, 65, 64, 40, 37, 26]'
p297
I3
sS'[14974, 5141, 444, 44, 28, 26, 1, 0, 0]'
p298
I3
sS'[2028, 89, 3, 0, 0, 0]'
p299
I3
sS'[2028, 22, 18, 11, 2, 0, 0, 0]'
p300
I3
sS'[17986, 2028, 322, 170, 152, 1, 0]'
p301
I3
sS'[14974, 5141, 850, 643, 44, 43, 18, 13, 8]'
p302
I3
sS'[115, 57, 37, 27, 20, 5, 3, 1, 0]'
p303
I3
sS'[14974, 5141, 151, 18, 13, 6, 1, 0]'
p304
I3
sS'[2028, 150, 76, 59, 37, 23, 22, 4, 2]'
p305
I3
sS'[14974, 2028, 114, 74, 68, 67, 19, 0, 0]'
p306
I3
sS'[118, 113, 61, 37, 27, 27, 23, 12, 1]'
p307
I3
sS'[189, 177, 58, 55, 53, 37, 26, 24, 3]'
p308
I3
sS'[269, 57, 19, 1, 0]'
p309
I3
sS'[2028, 78, 75, 43, 0, 0, 0]'
p310
I3
sS'[93, 74, 67, 37, 34, 7, 2, 2, 2]'
p311
I3
sS'[2028, 850, 73, 37, 11, 8, 7, 5, 0]'
p312
I3
sS'[378, 152, 112, 37, 29, 14, 8, 6, 2]'
p313
I3
sS'[14974, 5141, 174, 49, 12, 10, 3, 1, 0]'
p314
I3
sS'[37, 13, 6, 2, 2, 2, 0]'
p315
I3
sS'[14974, 5141, 246, 57, 25, 15, 1, 1, 0]'
p316
I3
sS'[17986, 14974, 5141, 247, 63, 15, 9, 5, 2]'
p317
I3
sS'[14974, 5141, 54, 3, 1, 0]'
p318
I3
sS'[17986, 2028, 403, 184, 60, 39, 3, 1, 0]'
p319
I3
sS'[2028, 35, 5, 0, 0, 0]'
p320
I3
sS'[113, 66, 56, 37, 28, 3, 0, 0]'
p321
I3
sS'[14974, 5141, 958, 224, 2, 1, 0, 0, 0]'
p322
I3
sS'[97, 75, 38, 37, 37, 27, 12, 0, 0]'
p323
I3
sS'[14974, 5141, 571, 63, 25, 4, 1, 0]'
p324
I3
sS'[444, 27, 16, 15, 9, 5, 0, 0]'
p325
I3
sS'[5141, 1753, 219, 106, 76, 13, 9, 4, 1]'
p326
I3
sS'[131, 89, 37, 27, 1, 0, 0, 0]'
p327
I3
sS'[37, 37]'
p328
I3
sS'[1753, 409, 179, 134, 63, 58, 50, 32, 10]'
p329
I3
sS'[17986, 14974, 5141, 111, 74, 0, 0]'
p330
I3
sS'[246, 48, 37, 36, 3, 0, 0, 0]'
p331
I3
sS'[17986, 14974, 5141, 958, 850, 0, 0, 0, 0]'
p332
I3
sS'[2028, 77, 75, 37, 23, 3, 1, 0, 0]'
p333
I3
sS'[37, 5, 5, 0, 0, 0, 0, 0]'
p334
I3
sS'[14974, 5141, 643, 339, 176, 69, 31, 28, 2]'
p335
I3
sS'[2028, 45, 37, 9, 0, 0, 0, 0, 0]'
p336
I3
sS'[14974, 5141, 958, 101, 35, 22, 14, 8, 0]'
p337
I3
sS'[103, 38, 27, 6, 0, 0]'
p338
I3
sS'[14974, 5141, 89, 35, 15, 10, 6, 2, 0]'
p339
I3
sS'[14974, 5141, 367, 170, 57, 5, 0]'
p340
I3
sS'[176, 106, 37, 29, 23, 5, 2, 0]'
p341
I3
sS'[14974, 5141, 571, 240, 227, 31, 28, 16, 6]'
p342
I3
sS'[246, 52, 47, 37, 36, 34, 0, 0, 0]'
p343
I3
sS'[5141, 66, 65, 61, 49, 37, 11, 0, 0]'
p344
I3
sS'[37, 35, 16, 12, 5, 3, 0, 0, 0]'
p345
I3
sS'[2028, 339, 75, 42, 37, 22, 5, 0, 0]'
p346
I3
sS'[246, 55, 41, 37, 27, 6, 3, 3, 0]'
p347
I3
sS'[2028, 485, 62, 38, 37, 3, 0, 0, 0]'
p348
I3
sS'[17986, 2028, 134, 111, 52, 37, 16, 7, 1]'
p349
I3
sS'[14974, 850, 356, 141, 32, 20, 11, 4, 1]'
p350
I3
sS'[14974, 5141, 850, 189, 123, 26, 25, 20, 18]'
p351
I3
sS'[187, 40, 27, 24, 14, 0, 0]'
p352
I3
sS'[14974, 5141, 571, 365, 298, 240, 3, 2, 0]'
p353
I3
sS'[374, 333, 140, 37, 8, 1, 1, 0, 0]'
p354
I3
sS'[17986, 14974, 5259, 184, 183, 149, 38, 23, 22]'
p355
I1
sS'[14974, 5259, 183, 115, 51, 27, 18, 0]'
p356
I1
sS'[14974, 5141, 958, 123, 42, 16, 14, 9, 4]'
p357
I3
sS'[65, 37, 29, 27, 10, 7, 0, 0, 0]'
p358
I3
sS'[485, 61, 37, 26, 13, 12, 2, 1, 0]'
p359
I3
sS'[14974, 5141, 958, 124, 77, 58, 56, 7, 0]'
p360
I3
sS'[17986, 69, 37, 33, 8, 1, 0, 0]'
p361
I3
sS'[702, 37, 12, 11, 7, 2, 0, 0, 0]'
p362
I3
sS'[84, 37, 23, 12, 6, 2, 0, 0, 0]'
p363
I3
sS'[2028, 168, 0, 0]'
p364
I3
sS'[1827, 59, 37, 27, 2, 0, 0, 0]'
p365
I3
sS'[17986, 485, 61, 11, 5, 3, 3, 0]'
p366
I3
sS'[2028, 187, 121, 57, 37, 22, 15, 0, 0]'
p367
I3
sS'[367, 37, 26, 18]'
p368
I3
sS'[14974, 5141, 147, 115, 106, 85, 66, 3, 1]'
p369
I3
sS'[14974, 5141, 811, 61, 6, 0, 0]'
p370
I3
sS'[2028, 322, 76, 37, 11, 7, 1, 0, 0]'
p371
I3
sS'[59, 37, 4, 0, 0, 0, 0, 0, 0]'
p372
I3
sS'[14974, 5141, 62, 19, 9, 6, 0, 0]'
p373
I3
sS'[5141, 459, 77, 71, 37, 25, 14, 0, 0]'
p374
I3
sS'[14974, 5141, 131, 113, 49, 28, 1, 0, 0]'
p375
I3
sS'[14974, 5141, 129, 83, 15, 1, 0, 0]'
p376
I3
sS'[251, 37, 19, 8, 1, 0, 0, 0]'
p377
I3
sS'[113, 95, 38, 37, 36, 5, 3, 0, 0]'
p378
I3
sS'[14974, 5141, 643, 246, 224, 189, 24, 18, 16]'
p379
I3
sS'[14974, 5141, 643, 485, 356, 168, 37, 34, 0]'
p380
I3
sS'[14974, 5141, 365, 298, 240, 19, 2, 0, 0]'
p381
I3
sS'[302, 57, 57, 37, 37, 3, 1, 0, 0]'
p382
I3
sS'[14974, 5141, 958, 106, 20, 0, 0]'
p383
I3
sS'[14974, 5141, 811, 556, 50, 11, 8, 0, 0]'
p384
I3
sS'[2028, 610, 76, 23, 18, 6, 4, 1, 0]'
p385
I3
sS'[14974, 2028, 444, 37, 35, 21, 15, 0]'
p386
I3
sS'[2028, 0, 0]'
p387
I3
sS'[17986, 14974, 5141, 367, 179, 174, 61, 26, 6]'
p388
I3
sS'[14974, 5141, 61, 31, 29, 11, 11, 2, 0]'
p389
I3
sS'[14974, 5141, 125, 102, 71, 67, 49, 24, 3]'
p390
I3
sS'[17986, 14974, 5259, 370, 177, 76, 22, 16, 9]'
p391
I1
sS'[17986, 2028, 46, 20, 16, 7, 5, 0, 0]'
p392
I3
sS'[39, 37, 16, 5, 0, 0]'
p393
I3
sS'[14974, 5141, 643, 246, 111, 18, 11, 11, 10]'
p394
I3
sS'[2028, 322, 76, 9, 2, 1, 1, 0]'
p395
I3
sS'[1753, 141, 91, 32, 22, 0, 0, 0, 0]'
p396
I3
sS'[339, 335, 61, 37, 27, 16, 2, 0, 0]'
p397
I3
sS'[14974, 5141, 333, 251, 37, 31, 27, 23, 13]'
p398
I3
sS'[138, 37, 2, 1, 0]'
p399
I3
sS'[14974, 2028, 76, 60, 37, 6, 0, 0]'
p400
I3
sS'[14974, 5141, 958, 12, 1, 0, 0, 0]'
p401
I3
sS'[14974, 5141, 335, 189, 140, 2, 0, 0]'
p402
I3
sS'[2028, 356, 93, 8, 0, 0, 0, 0]'
p403
I3
sS'[14974, 5141, 105, 77, 39, 20, 1, 1, 0]'
p404
I3
sS'[17986, 2028, 324, 71, 17, 6, 1, 0]'
p405
I3
sS'[37, 0]'
p406
I3
sS'[37, 15, 7, 0, 0]'
p407
I3
sS'[311, 187, 61, 29, 27, 0, 0]'
p408
I3
sS'[37, 27, 14, 12, 7, 3, 2, 0, 0]'
p409
I3
sS'[14974, 5141, 106, 46, 32, 5, 4, 4, 3]'
p410
I3
sS'[14974, 5141, 64, 62, 11, 7, 0, 0, 0]'
p411
I3
sS'[17986, 485, 139, 61, 59, 56, 37, 8, 1]'
p412
I3
sS'[48, 27, 26, 16, 9, 7, 0, 0, 0]'
p413
I3
sS'[367, 335, 138, 134, 80, 61, 40, 37, 28]'
p414
I3
sS'[17986, 485, 90, 37, 29, 26, 19, 16, 1]'
p415
I3
sS'[14974, 5141, 958, 605, 339, 322, 144, 0]'
p416
I3
sS'[14974, 5141, 958, 14, 0, 0, 0]'
p417
I3
sS'[139, 87, 37, 25, 13, 9, 1, 0, 0]'
p418
I3
sS'[14974, 5141, 127, 112, 62, 41, 35, 0]'
p419
I3
sS'[2028, 850, 184, 105, 87, 50, 37, 6, 0]'
p420
I3
sS'[210, 87, 42, 37, 21, 14, 4, 0]'
p421
I3
sS'[14974, 6169, 314, 165, 154, 91, 52, 39, 13]'
p422
I2
sS'[14974, 5141, 958, 55, 1, 0, 0, 0, 0]'
p423
I3
sS'[61, 37, 34, 4, 0, 0, 0]'
p424
I3
sS'[90, 75, 54, 46, 37, 16, 8, 5, 0]'
p425
I3
sS'[14974, 5141, 32, 5, 5, 0, 0]'
p426
I3
sS'[83, 49, 37, 4, 1, 0, 0, 0, 0]'
p427
I3
sS'[2028, 188, 76, 61, 37, 22, 3, 0, 0]'
p428
I3
sS'[14974, 5141, 125, 34, 24, 0, 0, 0, 0]'
p429
I3
sS'[444, 57, 36, 27, 16, 3, 3, 0, 0]'
p430
I3
sS'[149, 57, 37, 25, 16, 0, 0]'
p431
I3
sS'[14974, 5141, 246, 75, 54, 33, 30, 16, 15]'
p432
I3
sS'[14974, 5141, 958, 374, 215, 86, 70, 65, 9]'
p433
I3
sS'[39, 37, 11, 0, 0, 0, 0, 0]'
p434
I3
sS'[14974, 5141, 193, 59, 13, 7, 6, 3, 0]'
p435
I3
sS'[189, 138, 84, 37, 14]'
p436
I3
sS'[298, 179, 37, 28, 27, 20, 4, 0, 0]'
p437
I3
sS'[59, 37]'
p438
I3
sS'[105, 37, 13, 0, 0, 0, 0]'
p439
I3
sS'[14974, 5141, 356, 25, 25, 4, 2, 1, 1]'
p440
I3
sS'[14974, 2028, 356, 269, 18, 7, 6, 0]'
p441
I3
sS'[17986, 14974, 5141, 643, 140, 44, 24, 18, 2]'
p442
I3
sS'[2028, 850, 45, 25, 2, 1, 0]'
p443
I3
sS'[14974, 5141, 958, 103, 89, 51, 29, 13, 1]'
p444
I3
sS'[161, 37, 16, 9, 5, 3, 2]'
p445
I3
sS'[14974, 5141, 958, 20, 17, 3, 3, 3, 1]'
p446
I3
sS'[14974, 5141, 958, 370, 24, 21, 8, 8, 1]'
p447
I3
sS'[14974, 5141, 12]'
p448
I3
sS'[14974, 5141, 189, 121, 115, 66, 16, 12, 12]'
p449
I3
sS'[850, 324, 90, 13, 10]'
p450
I3
sS'[17986, 2028, 643, 610, 260, 75, 37, 37, 1]'
p451
I3
sS'[14974, 5141, 958, 485, 203, 0, 0, 0, 0]'
p452
I3
sS'[61, 37, 19, 16, 13, 10, 3, 3, 0]'
p453
I3
sS'[14974, 5141, 2028, 958, 224, 2, 2, 1, 0]'
p454
I3
sS'[2028, 123, 106, 61, 37, 13, 3, 0, 0]'
p455
I3
sS'[37, 29, 23, 13, 0, 0, 0, 0, 0]'
p456
I3
sS'[14974, 5141, 643, 444, 250, 106, 73, 65, 37]'
p457
I3
sS'[83, 42, 37, 27, 24, 1, 0, 0, 0]'
p458
I3
sS'[17986, 111, 72, 37, 0, 0, 0]'
p459
I3
sS'[14974, 5141, 643, 67, 29, 18, 13, 2, 0]'
p460
I3
sS'[335, 49, 43, 37, 34, 13, 8, 6, 0]'
p461
I3
sS'[17986, 339, 101, 67, 37, 22, 14, 6, 6]'
p462
I3
sS'[17986, 2028, 31, 30, 27, 13, 8, 0, 0]'
p463
I3
sS'[14974, 227, 37, 13, 12, 6, 0, 0, 0]'
p464
I3
sS'[216, 51, 37, 27, 14, 13, 2, 0, 0]'
p465
I3
sS'[14974, 5141, 958, 24, 12, 3, 2, 2, 0]'
p466
I3
sS'[14974, 5141, 485, 179, 65, 37, 10, 5]'
p467
I3
sS'[14974, 5141, 972, 107, 78, 50, 15, 3, 2]'
p468
I3
sS'[17986, 14974, 5141, 958, 339, 176, 5, 1, 0]'
p469
I3
sS'[14974, 5141, 356, 31, 15, 14, 0, 0]'
p470
I3
sS'[17986, 14974, 5141, 643, 25, 24, 9, 0, 0]'
p471
I3
sS'[14974, 2028, 485, 57, 6, 0]'
p472
I3
sS'[14974, 5141, 958, 485, 1, 0, 0, 0]'
p473
I3
sS'[14974, 5141, 26, 19, 7, 1, 0, 0, 0]'
p474
I3
sS'[2028, 168, 37, 1, 0]'
p475
I3
sS'[189, 101, 37, 27, 26, 6, 0, 0]'
p476
I3
sS'[367, 189, 123, 61, 37, 24, 17, 12, 11]'
p477
I3
sS'[17986, 2028, 322, 43, 28, 25, 22, 14, 0]'
p478
I3
sS'[210, 103, 36, 28, 27, 24, 0, 0]'
p479
I3
sS'[189, 140, 69, 52, 49, 36, 27, 0, 0]'
p480
I3
sS'[14974, 5141, 65, 56, 28, 27, 20, 12, 1]'
p481
I3
sS'[2028, 339, 149, 131, 37, 15, 2, 0]'
p482
I3
sS'[14974, 5141, 409, 365, 78, 69, 49, 27, 15]'
p483
I3
sS'[374, 275, 193, 132, 87, 44, 37, 20, 6]'
p484
I3
sS'[106, 27, 18, 14, 13, 7, 4, 0]'
p485
I3
sS'[367, 251, 38, 37, 20, 18, 11, 8, 5]'
p486
I3
sS'[90, 67, 47, 27, 1, 0, 0, 0]'
p487
I3
sS'[14974, 5141, 78, 58, 49, 34, 26, 14, 2]'
p488
I3
sS'[2028, 339, 65, 53, 37, 9, 4, 1, 0]'
p489
I3
sS'[37, 11, 10, 10, 5, 3, 0, 0, 0]'
p490
I3
sS'[14974, 5141, 571, 246, 0]'
p491
I3
sS'[643, 123, 37, 37, 17, 4, 3, 2, 0]'
p492
I3
sS'[143, 36, 27, 2, 0, 0, 0]'
p493
I3
sS'[14974, 5141, 958, 113, 0, 0, 0, 0]'
p494
I3
sS'[14974, 2028, 370, 356, 40, 3, 2, 0, 0]'
p495
I3
sS'[702, 64, 23, 0, 0, 0, 0, 0]'
p496
I1
sS'[14974, 5141, 115, 47, 24, 17, 15, 3, 1]'
p497
I3
sS'[14974, 333, 67, 37, 2, 0, 0, 0, 0]'
p498
I3
sS'[14974, 5141, 99, 41, 34, 24, 3, 2, 0]'
p499
I3
sS'[610, 260, 77, 45, 37, 25, 0, 0, 0]'
p500
I3
sS'[339, 37, 17, 4, 2, 0, 0]'
p501
I3
sS'[144, 74, 59, 37, 36, 33, 28, 27, 26]'
p502
I3
sS'[2028, 610, 260, 184, 37, 23, 14, 14, 6]'
p503
I3
sS'[14974, 150, 13, 4, 3, 2, 0, 0, 0]'
p504
I3
sS'[14974, 5141, 2028, 958, 605, 339, 322, 144, 4]'
p505
I3
sS'[2028, 138, 106, 103, 79, 64, 59, 37, 12]'
p506
I3
sS'[154, 37, 2, 0]'
p507
I3
sS'[189, 123, 47, 37, 8]'
p508
I3
sS'[14974, 5141, 958, 335, 298, 150, 89, 22, 1]'
p509
I3
sS'[17986, 2028, 115, 16, 0, 0]'
p510
I3
sS'[14974, 5141, 571, 346, 240, 42, 11, 9, 3]'
p511
I3
sS'[656, 193, 183, 175, 64]'
p512
I1
sS'[17986, 246, 52, 37, 36, 7, 0, 0, 0]'
p513
I3
sS'[234, 168, 65, 64, 37, 6, 3, 2, 0]'
p514
I3
sS'[2028, 286, 89, 60, 37, 35, 4, 0, 0]'
p515
I3
sS'[14974, 5141, 80, 58, 3, 0]'
p516
I3
sS'[248, 89, 39, 38, 37, 26, 25, 19, 16]'
p517
I3
sS'[2028, 152, 44, 37, 23, 11, 9, 8]'
p518
I3
sS'[14974, 5259, 76, 19, 1, 0, 0, 0, 0]'
p519
I1
sS'[2028, 100, 46, 37, 15, 9, 1, 0]'
p520
I3
sS'[89, 65, 40, 37, 8, 3]'
p521
I3
sS'[37, 27, 5, 1, 0, 0, 0, 0]'
p522
I3
sS'[5141, 189, 123, 67, 43, 37, 11, 4, 2]'
p523
I3
sS'[66, 37, 30, 26, 16, 2, 0, 0, 0]'
p524
I3
sS'[47, 37, 4, 4, 3, 2, 0, 0, 0]'
p525
I3
sS'[17986, 2028, 179, 37, 31, 28, 16, 4, 0]'
p526
I3
sS'[115, 37, 5, 0, 0, 0]'
p527
I3
sS'[144, 75, 37, 4, 1]'
p528
I3
sS'[57, 55, 37, 32, 24, 22, 10, 9, 7]'
p529
I3
sS'[17986, 14974, 5141, 103, 29, 12, 4, 3, 1]'
p530
I3
sS'[104, 53, 41, 37, 14, 1, 0, 0, 0]'
p531
I3
sS'[103, 27, 12, 3, 2, 1, 1, 0]'
p532
I3
sS'[14974, 302, 69, 37, 23, 16, 8, 3, 1]'
p533
I3
sS'[2028, 23, 12, 9, 0]'
p534
I3
sS'[2028, 485, 189, 28, 13, 5, 0]'
p535
I3
sS'[14974, 5141, 189, 176, 66, 46, 11, 7, 6]'
p536
I3
sS'[14974, 5141, 36, 25, 4, 1, 0, 0, 0]'
p537
I3
sS'[14974, 6711, 5141, 57, 46, 9, 2, 0, 0]'
p538
I3
sS'[14974, 5141, 2028, 102, 24, 2, 1, 0, 0]'
p539
I3
sS'[58, 37, 12, 0, 0, 0, 0]'
p540
I3
sS'[14974, 5141, 958, 247, 16, 3, 2, 1, 0]'
p541
I3
sS'[2028, 37, 37, 28, 25, 4, 3, 0]'
p542
I3
sS'[2028, 610, 123, 44, 13, 9, 2, 0, 0]'
p543
I3
sS'[14974, 5141, 643, 556, 189, 61, 7, 4, 2]'
p544
I3
sS'[14974, 5141, 958, 131, 94, 18, 8, 0, 0]'
p545
I3
sS'[14974, 5141, 643, 24, 18, 18, 10, 9, 1]'
p546
I3
sS'[333, 63, 61, 37, 37, 34, 12, 0, 0]'
p547
I3
sS'[2028, 266, 87, 66, 61, 15, 2, 1, 0]'
p548
I3
sS'[14974, 5141, 189, 113, 50, 33, 29, 23, 10]'
p549
I3
sS'[247, 76, 74, 37, 32, 22, 18, 3, 2]'
p550
I3
sS'[17986, 2028, 83, 80, 20, 18, 3, 0]'
p551
I3
sS'[2028, 339, 75, 42, 37, 15, 1, 0]'
p552
I3
sS'[37, 27, 0]'
p553
I3
sS'[339, 37, 27, 25, 24, 16, 15, 14, 12]'
p554
I3
sS'[115, 39, 37, 10, 1, 1, 0, 0, 0]'
p555
I3
sS'[485, 184, 61, 13, 0]'
p556
I3
sS'[5141, 1753, 124, 32, 23, 0, 0]'
p557
I3
sS'[14974, 5141, 958, 485, 149, 101, 0, 0, 0]'
p558
I3
sS'[14974, 5141, 234, 177, 113, 36, 13, 8, 4]'
p559
I3
sS'[14974, 5141, 958, 38, 11, 1, 0, 0, 0]'
p560
I3
sS'[2028, 160, 72, 37, 37, 18, 18, 11, 0]'
p561
I3
sS'[14974, 5141, 643, 49, 34, 21, 18, 14, 10]'
p562
I3
sS'[14974, 444, 189, 95, 37, 37, 19, 10, 5]'
p563
I3
sS'[485, 90, 65, 61, 7, 0]'
p564
I3
sS'[84, 51, 34, 27, 0]'
p565
I3
sS'[37, 32, 16, 10, 1, 0, 0, 0]'
p566
I3
sS'[49, 37, 29, 13, 8, 3, 2, 1, 0]'
p567
I3
sS'[14974, 5141, 80, 52, 50, 28, 20, 13, 3]'
p568
I3
sS'[14974, 5141, 643, 246, 57, 19, 18, 12, 6]'
p569
I3
sS'[73, 37, 27, 17, 7, 4, 3, 0]'
p570
I3
sS'[14974, 5141, 247, 210, 76, 12, 5, 1, 0]'
p571
I3
sS'[485, 103, 68, 61, 57, 12, 0, 0]'
p572
I3
sS'[367, 138, 99, 89, 37, 31, 3, 1]'
p573
I3
sS'[17986, 14974, 6169, 184, 115, 90, 17]'
p574
I2
sS'[14974, 6169, 643, 243, 94, 87, 20, 14, 8]'
p575
I2
sS'[14974, 5141, 958, 374, 302, 57, 29, 0, 0]'
p576
I3
sS'[36, 36, 27, 3, 2, 1, 0]'
p577
I3
sS'[67, 63, 37, 17, 16, 0]'
p578
I3
sS'[485, 322, 147, 61, 58, 52, 37, 12, 4]'
p579
I3
sS'[14974, 5141, 140, 106, 75, 59, 51, 8, 4]'
p580
I3
sS'[14974, 5141, 2028, 106, 80, 38, 31, 29, 4]'
p581
I3
sS'[14974, 5141, 356, 275, 193, 149, 35, 19, 15]'
p582
I3
sS'[14974, 5141, 409, 365, 78, 69, 49, 19, 17]'
p583
I3
sS'[14974, 5141, 105, 35, 5, 0, 0]'
p584
I3
sS'[131, 62, 27, 15, 3, 1, 0, 0]'
p585
I3
sS'[37, 16, 10, 2, 1, 0, 0, 0, 0]'
p586
I3
sS'[322, 80, 69, 37, 27, 24, 23, 1, 0]'
p587
I3
sS'[55, 27, 12, 4, 1, 1, 0, 0]'
p588
I3
sS'[149, 37, 35, 30, 26, 3, 2, 1, 0]'
p589
I3
sS'[14974, 5141, 958, 850, 485, 2, 0, 0, 0]'
p590
I3
sS'[17986, 14974, 5141, 958, 15, 0, 0, 0, 0]'
p591
I3
sS'[14974, 5141, 6, 1, 0]'
p592
I3
sS'[14974, 5141, 116, 84, 29, 26, 8, 4, 1]'
p593
I3
sS'[189, 86, 57, 52, 37, 31, 27, 21, 5]'
p594
I3
sS'[14974, 5259, 183, 115, 86, 50, 43, 27, 4]'
p595
I1
sS'[2028, 133, 50, 39, 37, 13, 9, 0, 0]'
p596
I3
sS'[2028, 269, 51, 37, 24, 16, 2, 0, 0]'
p597
I3
sS'[2028, 138, 56, 44, 42, 37, 27, 13, 2]'
p598
I3
sS'[144, 74, 27, 14, 13, 12, 2, 2, 0]'
p599
I3
sS'[14974, 5141, 643, 18, 2, 0, 0, 0, 0]'
p600
I3
sS'[14974, 5141, 643, 25, 3, 0, 0, 0, 0]'
p601
I3
sS'[2028, 150, 14, 12, 12, 0, 0]'
p602
I3
sS'[14974, 5141, 169, 149, 138, 30, 25, 25, 0]'
p603
I3
sS'[17986, 14974, 5141, 370, 95, 90, 90, 30, 16]'
p604
I3
sS'[17986, 459, 366, 134, 79, 57, 37, 19, 18]'
p605
I3
sS'[374, 37, 20, 0]'
p606
I3
sS'[14974, 5141, 958, 103, 46, 36, 20, 13, 0]'
p607
I3
sS'[656, 57, 2, 0, 0, 0]'
p608
I1
sS'[2028, 127, 103, 69, 49, 1, 0, 0, 0]'
p609
I3
sS'[14974, 5141, 958, 302, 76, 61, 21, 1, 0]'
p610
I3
sS'[90, 76, 27, 22, 20, 5, 2, 0]'
p611
I3
sS'[339, 62, 37, 35, 22, 11, 8, 0, 0]'
p612
I3
sS'[14974, 5141, 958, 77, 73, 56, 7, 3, 0]'
p613
I3
sS'[14974, 5259, 184, 183, 125, 115, 91, 84, 27]'
p614
I1
sS'[17986, 14974, 5141, 224, 106, 78, 31, 29, 27]'
p615
I3
sS'[17986, 14974, 144, 37, 17, 10, 5, 3, 2]'
p616
I3
sS'[14974, 5141, 111, 87, 49, 29, 24, 12, 9]'
p617
I3
sS'[459, 189, 147, 140, 123, 37, 16, 14, 11]'
p618
I3
sS'[14974, 5141, 246, 112, 80, 14, 5, 4, 0]'
p619
I3
sS'[14974, 5259, 702, 240, 154, 64, 43, 26, 25]'
p620
I1
sS'[485, 45, 27, 15, 15, 10, 0, 0, 0]'
p621
I3
sS'[643, 147, 106, 91, 75, 37, 36, 27, 19]'
p622
I3
sS'[74, 37, 27, 10, 0, 0]'
p623
I3
sS'[17986, 14974, 5141, 958, 324, 298, 188, 11, 3]'
p624
I3
sS'[14974, 5141, 485, 149, 31, 26, 0, 0, 0]'
p625
I3
sS'[14974, 5141, 958, 13, 8, 2, 0, 0, 0]'
p626
I3
sS'[374, 22, 9, 0, 0]'
p627
I3
sS'[17986, 14974, 5141, 643, 346, 152, 106, 61, 27]'
p628
I3
sS'[366, 61, 57, 37, 31, 27, 26, 0, 0]'
p629
I3
sS'[14974, 5141, 958, 356, 74, 7, 2, 0, 0]'
p630
I3
sS'[356, 234, 37, 30, 27, 3, 0, 0, 0]'
p631
I3
sS'[27, 17, 9, 7, 4, 3, 1, 0, 0]'
p632
I3
sS'[14974, 5141, 643, 459, 314, 137, 106, 69, 57]'
p633
I3
sS'[101, 85, 59, 37, 14, 2, 2]'
p634
I3
sS'[14974, 5141, 958, 89, 34, 26, 1, 0, 0]'
p635
I3
sS'[14974, 5141, 811, 234, 73, 6, 0]'
p636
I3
sS'[2028, 322, 19, 2, 0]'
p637
I3
sS'[14974, 5141, 40, 8, 2, 1, 0, 0, 0]'
p638
I3
sS'[444, 322, 37, 3, 2, 0, 0, 0, 0]'
p639
I3
sS'[14974, 5141, 87, 76, 21, 5, 2, 1, 0]'
p640
I3
sS'[2028, 37, 18, 9, 8, 0, 0]'
p641
I3
sS'[322, 76, 27, 1, 0, 0, 0, 0]'
p642
I3
sS'[14974, 5141, 246, 181, 93, 58, 3, 0, 0]'
p643
I3
sS'[179, 177, 106, 64, 61, 37, 6, 1]'
p644
I3
sS'[14974, 5141, 356, 333, 105, 1, 0, 0]'
p645
I3
sS'[14974, 5141, 958, 485, 17, 12, 2, 2, 0]'
p646
I3
sS'[14974, 5141, 958, 23, 9, 0, 0, 0]'
p647
I3
sS'[14974, 5141, 643, 137, 75, 52, 44, 18, 5]'
p648
I3
sS'[14974, 2028, 35, 12, 11, 5, 0, 0]'
p649
I3
sS'[119, 59, 37, 27, 9, 8, 1, 0, 0]'
p650
I3
sS'[17986, 2028, 168, 111, 3, 0, 0]'
p651
I3
sS'[61, 37, 34, 4, 1, 1, 0, 0, 0]'
p652
I3
sS'[14974, 5141, 2028, 958, 76, 42, 29, 17, 7]'
p653
I3
sS'[14974, 5141, 958, 302, 61, 50, 36, 23, 21]'
p654
I3
sS'[14974, 5141, 643, 189, 39, 37, 9, 0, 0]'
p655
I3
sS'[151, 53, 37, 0, 0]'
p656
I3
sS'[14974, 5141, 70, 4, 0, 0, 0, 0]'
p657
I3
sS'[17986, 14974, 5141, 958, 59, 59, 37, 4, 0]'
p658
I3
sS'[14974, 5141, 247, 188, 135, 67, 24, 23, 15]'
p659
I3
sS'[14974, 5141, 958, 35, 1, 0, 0, 0]'
p660
I3
sS'[14974, 5259, 126, 76, 28, 28, 25, 18, 12]'
p661
I1
sS'[17986, 14974, 87, 64, 39, 37, 13, 0]'
p662
I3
sS'[2028, 266, 103, 4, 2, 0]'
p663
I3
sS'[1091, 59, 51, 37, 27, 21, 13, 5, 4]'
p664
I3
sS'[2028, 4, 4, 3, 1, 0, 0]'
p665
I3
sS'[17986, 14974, 5259, 4, 3, 0]'
p666
I1
sS'[17986, 5141, 367, 366, 99, 37, 34, 34, 7]'
p667
I3
sS'[17986, 246, 52, 37, 36, 7, 0]'
p668
I3
sS'[17986, 2028, 0, 0]'
p669
I3
sS'[17986, 179, 61, 37, 32, 28, 23, 15, 7]'
p670
I3
sS'[5141, 101, 43, 27, 20, 15, 0]'
p671
I3
sS'[14974, 5141, 643, 110, 49, 18, 15, 12, 1]'
p672
I3
sS'[133, 27, 12, 6, 1, 0]'
p673
I3
sS'[14974, 5141, 367, 356, 170, 40, 18, 8, 3]'
p674
I3
sS'[76, 35, 27, 3, 2, 0]'
p675
I3
sS'[14974, 2028, 188, 103, 87, 37, 12, 5, 0]'
p676
I3
sS'[75, 46, 44, 37, 20, 18, 7, 4]'
p677
I3
sS'[14974, 5141, 643, 356, 103, 21, 10, 7]'
p678
I3
sS'[14974, 5141, 958, 150, 86, 22, 0, 0, 0]'
p679
I3
sS'[2028, 256, 53, 29, 14, 13, 8, 0]'
p680
I3
sS'[188, 183, 111, 37, 32, 14, 14, 11, 5]'
p681
I3
sS'[17986, 5141, 2028, 339, 75, 12, 9, 8, 0]'
p682
I3
sS'[14974, 58, 37, 24, 10, 3, 2, 2, 0]'
p683
I3
sS'[2028, 51, 50, 33, 15, 5, 0]'
p684
I3
sS'[14974, 5141, 958, 131, 76, 29, 1, 0, 0]'
p685
I3
sS'[335, 64, 44, 37, 7, 5, 4, 0, 0]'
p686
I3
sS'[485, 61, 37, 31, 9, 2, 0, 0, 0]'
p687
I3
sS'[170, 168, 107, 56, 46, 37, 27, 0, 0]'
p688
I3
sS'[14974, 5141, 958, 188, 49, 13, 8, 2, 1]'
p689
I3
sS'[103, 37, 27, 12, 12, 10, 6, 4, 0]'
p690
I3
sS'[37, 27, 27, 24, 18, 2, 0, 0, 0]'
p691
I3
sS'[37, 27, 0, 0]'
p692
I3
sS'[138, 90, 37, 27, 17, 13, 12, 5, 5]'
p693
I3
sS'[27, 26, 16, 2, 0, 0]'
p694
I3
sS'[14974, 5141, 958, 39, 19, 5, 1, 0, 0]'
p695
I3
sS'[17986, 179, 140, 80, 37, 35, 22, 18, 0]'
p696
I3
sS'[105, 37, 27, 12, 11, 5, 2, 1, 1]'
p697
I3
sS'[14974, 5141, 958, 189, 14, 0, 0, 0]'
p698
I3
sS'[850, 286, 224, 37, 14, 11, 4, 1, 0]'
p699
I3
sS'[18774, 14974, 5141, 485, 78, 32, 18, 13, 8]'
p700
I3
sS'[14974, 5141, 958, 49, 23, 1, 0, 0, 0]'
p701
I3
sS'[2028, 339, 37, 25, 0, 0, 0]'
p702
I3
sS'[14974, 5141, 170, 56, 11, 9, 0]'
p703
I3
sS'[2028, 248, 105, 66, 63, 37, 30, 24, 9]'
p704
I3
sS'[14974, 5141, 2028, 52, 25, 22, 11, 9, 7]'
p705
I3
sS'[78, 34, 27, 11, 0, 0]'
p706
I3
sS'[63, 57, 37, 16, 11, 3, 0, 0, 0]'
p707
I3
sS'[2028, 179, 45, 30, 8, 0, 0]'
p708
I3
sS'[14974, 5141, 13, 11, 8]'
p709
I3
sS'[14974, 5141, 76, 60, 14, 12, 10, 4, 0]'
p710
I3
sS'[2028, 227, 0, 0, 0, 0]'
p711
I3
sS'[14974, 5141, 643, 29, 26, 18, 5, 0]'
p712
I3
sS'[17986, 302, 37, 27, 24, 6, 2, 0]'
p713
I3
sS'[14974, 5141, 76, 32, 24, 7, 4, 0, 0]'
p714
I3
sS'[14974, 5141, 958, 374, 224, 184, 2, 2, 1]'
p715
I3
sS'[14974, 5141, 958, 28, 4, 2, 0, 0]'
p716
I3
sS'[50, 37, 30, 25, 18, 14, 9, 0, 0]'
p717
I3
sS'[14974, 5141, 958, 51, 51, 29, 17, 0, 0]'
p718
I3
sS'[643, 193, 90, 63, 37, 31, 29, 27, 2]'
p719
I3
sS'[409, 339, 73, 4, 0, 0, 0, 0]'
p720
I3
sS'[246, 52, 37, 36, 0, 0, 0]'
p721
I3
sS'[2028, 64, 55, 37, 27, 18, 11, 7, 6]'
p722
I3
sS'[101, 69, 65, 50, 37]'
p723
I3
sS'[165, 43, 37, 36, 34, 27, 11, 0, 0]'
p724
I3
sS'[2028, 444, 356, 101, 75, 61, 37, 32, 24]'
p725
I3
sS'[14974, 2028, 189, 177, 66, 37, 9, 0, 0]'
p726
I3
sS'[252, 121, 27, 17, 14, 4, 2, 0, 0]'
p727
I3
sS'[138, 46, 37, 26, 17, 13, 11, 1, 0]'
p728
I3
sS'[17986, 2028, 170, 37, 34, 0, 0]'
p729
I3
sS'[14974, 2028, 138, 103, 99, 37, 4, 0, 0]'
p730
I3
sS'[27, 7, 0]'
p731
I3
sS'[14974, 5141, 37, 17, 11, 10, 0]'
p732
I3
sS'[57, 44, 37, 5, 5, 3, 0, 0]'
p733
I3
sS'[269, 83, 74, 39, 38, 37, 27, 26, 10]'
p734
I3
sS'[17986, 702, 656, 183, 154, 29, 22, 0, 0]'
p735
I1
sS'[14974, 5141, 107, 106, 79, 69, 38, 21, 5]'
p736
I3
sS'[14974, 2028, 189, 89, 58, 37, 11, 1, 0]'
p737
I3
sS'[17986, 14974, 5141, 958, 339, 75, 9, 8, 1]'
p738
I3
sS'[14974, 485, 339, 65, 37, 32, 4]'
p739
I3
sS'[14974, 5141, 247, 103, 79, 25, 24, 20, 0]'
p740
I3
sS'[81, 37, 37, 10, 4, 2, 0, 0]'
p741
I3
sS'[14974, 2028, 103, 75, 37, 4, 3, 1, 0]'
p742
I3
sS'[275, 159, 37, 29, 27, 18, 17, 3, 3]'
p743
I3
sS'[14974, 6169, 107, 99, 30, 23, 4, 1, 0]'
p744
I2
sS'[14974, 5141, 958, 13, 3, 3, 0, 0]'
p745
I3
sS'[370, 37, 18, 12, 2, 1, 0]'
p746
I3
sS'[102, 67, 37, 30]'
p747
I3
sS'[234, 203, 176, 37, 28, 27, 6, 4, 0]'
p748
I3
sS'[17986, 2028, 335, 111, 71, 50, 49, 37, 3]'
p749
I3
sS'[14974, 2028, 189, 176, 41, 37, 29, 7, 7]'
p750
I3
sS'[245, 234, 129, 37, 33, 16, 7, 2, 1]'
p751
I3
sS'[14974, 94, 37, 26, 11, 2, 0]'
p752
I3
sS'[184, 37, 31, 27, 23, 0, 0, 0]'
p753
I3
sS'[14974, 5259, 240, 154, 105, 73, 51, 31, 5]'
p754
I1
sS'[58, 37, 1, 0]'
p755
I3
sS'[38, 37, 21, 19, 18, 13, 2]'
p756
I3
sS'[69, 67, 37, 3, 1, 0, 0, 0]'
p757
I3
sS'[2028, 103, 90, 16, 3, 1, 0, 0, 0]'
p758
I3
sS'[14974, 5141, 643, 56, 25, 11, 4, 3, 2]'
p759
I3
sS'[269, 189, 37, 27, 22, 3, 0, 0, 0]'
p760
I3
sS'[14974, 5141, 176, 125, 103, 96, 57, 50, 44]'
p761
I3
sS'[14974, 5141, 116, 90, 34, 7, 5, 2, 0]'
p762
I3
sS'[17986, 14974, 5141, 958, 14, 0, 0]'
p763
I3
sS'[339, 131, 112, 22, 6, 1, 0]'
p764
I3
sS'[84, 49, 29, 27, 23, 13, 0, 0]'
p765
I3
sS'[14974, 5141, 958, 324, 3, 3, 0, 0, 0]'
p766
I3
sS'[14974, 5141, 151, 8, 2, 0, 0]'
p767
I3
sS'[14974, 5141, 958, 78, 57, 16, 0, 0, 0]'
p768
I3
sS'[14974, 5259, 183, 152, 115, 27, 14, 5, 0]'
p769
I1
sS'[14974, 5141, 9, 7, 3, 0, 0, 0, 0]'
p770
I3
sS'[17986, 2028, 356, 83, 52, 40, 37, 34, 20]'
p771
I3
sS'[17986, 14974, 5141, 643, 44, 24, 18, 2, 1]'
p772
I3
sS'[136, 37, 16, 11, 0]'
p773
I3
sS'[459, 131, 107, 34, 27, 12, 0]'
p774
I3
sS'[17986, 2028, 444, 64, 37, 36, 5, 3, 0]'
p775
I3
sS'[68, 49, 45, 37, 19, 14, 1, 0, 0]'
p776
I3
sS'[2028, 188, 105, 47, 37, 0, 0]'
p777
I3
sS'[14974, 5141, 370, 163, 32, 19, 5, 2, 0]'
p778
I3
sS'[14974, 5141, 246, 69, 44, 14, 8, 7, 3]'
p779
I3
sS'[14974, 5141, 958, 131, 52, 15, 0, 0, 0]'
p780
I3
sS'[14974, 5259, 459, 244, 112, 51, 41, 2, 0]'
p781
I1
sS'[14974, 5141, 2028, 5, 0]'
p782
I3
sS'[18774, 14974, 850, 485, 210, 179, 118, 37, 37]'
p783
I3
sS'[58, 55, 37, 31, 16, 16, 1, 0, 0]'
p784
I3
sS'[101, 37, 22, 18, 13, 1, 0, 0]'
p785
I3
sS'[210, 138, 125, 103, 50, 43, 37, 35, 16]'
p786
I3
sS'[14974, 5141, 22, 16, 7, 3, 0]'
p787
I3
sS'[485, 115, 110, 37, 36, 14, 3, 1]'
p788
I3
sS'[14974, 37, 28, 9, 5, 0, 0, 0, 0]'
p789
I3
sS'[958, 37, 0, 0, 0, 0]'
p790
I3
sS'[14974, 5141, 170, 90, 73, 60, 0]'
p791
I3
sS'[14974, 37, 27, 4, 0, 0, 0, 0]'
p792
I3
sS'[52, 37, 27, 13, 11, 2, 0, 0]'
p793
I3
sS'[14974, 5141, 78, 74, 49, 44, 34, 23, 9]'
p794
I3
sS'[2028, 189, 89, 55, 37, 18, 5, 4, 0]'
p795
I3
sS'[2028, 50, 37, 37, 12, 0]'
p796
I3
sS'[14974, 5141, 251, 112, 60, 32, 26, 0, 0]'
p797
I3
sS'[83, 74, 38, 37, 27, 26, 18, 9, 5]'
p798
I3
sS'[17986, 14974, 5141, 170, 72, 56, 11, 0, 0]'
p799
I3
sS'[140, 37, 23, 0, 0, 0, 0]'
p800
I3
sS'[14974, 5141, 72, 40, 11, 3, 3, 0, 0]'
p801
I3
sS'[14974, 5141, 32, 16, 16, 0, 0]'
p802
I3
sS'[2028, 50, 37, 22, 7, 6, 3, 1, 0]'
p803
I3
sS'[2028, 850, 339, 75, 43, 42, 37, 15, 9]'
p804
I3
sS'[14974, 5141, 247, 137, 114, 57, 44, 23, 0]'
p805
I3
sS'[14974, 5141, 61, 54, 6, 2, 1, 1, 0]'
p806
I3
sS'[189, 179, 126, 37, 33, 30, 21, 15, 9]'
p807
I3
sS'[14974, 5141, 958, 131, 24, 0]'
p808
I3
sS'[14974, 2028, 485, 339, 131, 96, 37, 7, 6]'
p809
I3
sS'[14974, 5141, 240, 227, 128, 19, 0]'
p810
I3
sS'[17986, 14974, 5141, 958, 62, 56, 28, 12, 4]'
p811
I3
sS'[48, 37, 20, 19, 16, 12, 3, 0, 0]'
p812
I3
sS'[14974, 5141, 643, 189, 23, 22, 16, 0, 0]'
p813
I3
sS'[14974, 5141, 322, 80, 38, 31, 29, 29, 4]'
p814
I3
sS'[14974, 6169, 276, 136, 18, 0, 0, 0, 0]'
p815
I2
sS'[17986, 14974, 5141, 58, 43, 7, 0, 0]'
p816
I3
sS'[60, 37, 27, 13, 3, 1, 0, 0, 0]'
p817
I3
sS'[14974, 5141, 958, 14, 8, 2, 0, 0, 0]'
p818
I3
sS'[234, 115, 43, 37, 3, 2, 0]'
p819
I3
sS'[17986, 64, 37, 30, 26, 1]'
p820
I3
sS'[14974, 5141, 643, 459, 215, 76, 0, 0]'
p821
I3
sS'[163, 73, 37, 25, 14, 13, 4, 0]'
p822
I3
sS'[37, 16, 4, 0]'
p823
I3
sS'[14974, 5141, 643, 370, 87, 76, 5, 0, 0]'
p824
I3
sS'[14974, 5141, 972, 103, 29, 15, 12, 0, 0]'
p825
I3
sS'[14974, 5141, 87, 58, 6, 2, 2, 0, 0]'
p826
I3
sS'[370, 46, 37, 17, 2, 0]'
p827
I3
sS'[17986, 246, 52, 37, 36, 7, 1, 0, 0]'
p828
I3
sS'[17986, 14974, 5141, 111, 55, 52, 2, 1, 0]'
p829
I3
sS'[275, 105, 76, 37, 34, 26, 5, 2]'
p830
I3
sS'[60, 27, 12, 5, 0, 0]'
p831
I3
sS'[43, 27, 22, 13, 12, 5, 2, 0]'
p832
I3
sS'[14974, 5141, 958, 89, 76, 46, 35, 19, 0]'
p833
I3
sS'[17986, 5141, 2028, 57, 43, 30, 8, 0]'
p834
I3
sS'[131, 75, 39, 27, 0, 0, 0]'
p835
I3
sS'[246, 52, 42, 37, 36, 1, 1, 0, 0]'
p836
I3
sS'[40, 37, 34, 21, 13, 0, 0, 0]'
p837
I3
sS'[2028, 224, 43, 37, 37, 12, 1, 0, 0]'
p838
I3
sS'[14974, 5141, 958, 367, 89, 13, 3, 0, 0]'
p839
I3
sS'[322, 193, 51, 37, 37, 27, 9, 2, 1]'
p840
I3
sS'[17986, 14974, 5141, 958, 339, 126, 35, 1, 0]'
p841
I3
sS'[14974, 5259, 176, 168, 63, 4, 1, 0, 0]'
p842
I1
sS'[2028, 115, 37, 22, 11, 5, 4, 3, 0]'
p843
I3
sS'[37, 26, 17, 10, 6, 6, 5, 4, 0]'
p844
I3
sS'[14974, 5141, 643, 188, 139, 138, 34, 32, 18]'
p845
I3
sS'[14974, 5141, 64, 0, 0, 0]'
p846
I3
sS'[168, 37, 29, 13, 3, 3, 0, 0, 0]'
p847
I3
sS'[14974, 5259, 183, 152, 117, 64, 64, 58, 34]'
p848
I1
sS'[57, 37, 26, 24, 16, 11, 1, 0]'
p849
I3
sS'[2028, 339, 177, 102, 75, 67, 39, 37, 6]'
p850
I3
sS'[17986, 14974, 5141, 247, 73, 25, 12, 12, 0]'
p851
I3
sS'[2028, 215, 15, 13, 0]'
p852
I3
sS'[246, 184, 78, 37, 23, 7, 2]'
p853
I3
sS'[14974, 5141, 322, 111, 80, 75, 31, 8, 8]'
p854
I3
sS'[27, 21, 0, 0, 0, 0]'
p855
I3
sS'[2028, 51, 50, 37, 33, 15, 5, 0]'
p856
I3
sS'[2028, 156, 138, 5, 3, 0]'
p857
I3
sS'[177, 67, 49, 37, 27, 23, 13, 8, 0]'
p858
I3
sS'[2028, 485, 115, 75, 74, 52, 37, 1, 0]'
p859
I3
sS'[37, 21, 18, 0]'
p860
I3
sS'[14974, 5141, 122, 63, 24, 17, 0, 0]'
p861
I3
sS'[14974, 5259, 77, 38, 29, 23, 2, 0, 0]'
p862
I1
sS'[111, 103, 27, 4, 1, 0, 0]'
p863
I3
sS'[68, 37, 27, 26, 19, 5, 0, 0, 0]'
p864
I3
sS'[2028, 335, 93, 16, 4, 0]'
p865
I3
sS'[14974, 5141, 335, 5, 1, 1, 0]'
p866
I3
sS'[210, 83, 27, 24, 15, 2, 0]'
p867
I3
sS'[2028, 850, 37, 0, 0]'
p868
I3
sS'[14974, 5141, 367, 64, 32, 11, 1, 0, 0]'
p869
I3
sS'[356, 339, 286, 37, 18, 15, 9, 0, 0]'
p870
I3
sS'[14974, 2028, 339, 189, 188, 123, 37, 6, 0]'
p871
I3
sS'[147, 131, 85, 27, 22, 4, 0, 0]'
p872
I3
sS'[14974, 5141, 958, 333, 189, 51, 7, 0, 0]'
p873
I3
sS'[2028, 61, 59, 55, 50, 37, 30, 3]'
p874
I3
sS'[14974, 2028, 280, 46, 46, 32, 26, 15, 13]'
p875
I3
sS'[101, 75, 61, 56, 37, 13, 11, 0, 0]'
p876
I3
sS'[2028, 179, 4, 0, 0]'
p877
I3
sS'[17986, 131, 37, 34, 19, 12, 11, 5, 0]'
p878
I3
sS'[367, 366, 168, 37, 20, 18, 0]'
p879
I3
sS'[2028, 252, 227, 177, 77, 48, 37, 25, 3]'
p880
I3
sS'[14974, 5141, 958, 52, 24, 0, 0, 0]'
p881
I3
sS'[14974, 5141, 571, 79, 68, 35, 23, 14, 13]'
p882
I3
sS'[14974, 176, 23, 11, 9, 8, 7, 6, 1]'
p883
I3
sS'[14974, 5141, 356, 147, 68, 58, 55, 43, 22]'
p884
I3
sS'[14974, 5141, 210, 51, 36, 18, 0, 0]'
p885
I3
sS'[27, 7, 0, 0]'
p886
I3
sS'[14974, 5141, 643, 89, 23, 12, 6, 2, 1]'
p887
I3
sS'[176, 37, 2, 0, 0, 0, 0]'
p888
I3
sS'[14974, 5141, 188, 90, 19, 15, 1, 1, 0]'
p889
I3
sS'[610, 168, 129, 90, 37, 21, 8, 4, 0]'
p890
I3
sS'[17986, 302, 177, 69, 51, 37, 17, 12, 5]'
p891
I3
sS'[78, 42, 40, 37, 23, 3, 0, 0, 0]'
p892
I3
sS'[101, 97, 94, 49, 27, 27, 20, 13, 0]'
p893
I3
sS'[14974, 5141, 811, 16, 0]'
p894
I3
sS'[643, 335, 68, 37, 4, 3, 0]'
p895
I3
sS'[14974, 5141, 23, 0, 0, 0]'
p896
I3
sS'[14974, 6169, 367, 163, 129, 94, 57, 36, 21]'
p897
I2
sS'[14974, 5141, 571, 298, 240, 227, 34, 31, 28]'
p898
I3
sS'[14974, 5141, 643, 119, 68, 28, 7, 6, 1]'
p899
I3
sS'[37, 27, 4, 1, 0, 0, 0, 0]'
p900
I3
sS'[14974, 5141, 958, 370, 66, 42, 2, 0, 0]'
p901
I3
sS'[2028, 367, 189, 184, 51, 37, 6, 0]'
p902
I3
sS'[14974, 5141, 356, 105, 17, 4, 0]'
p903
I3
sS'[17986, 14974, 5141, 58, 42, 38, 20, 15]'
p904
I3
sS'[14974, 5141, 113, 42, 23, 12, 12, 7, 1]'
p905
I3
sS'[14974, 2028, 251, 189, 37, 20, 19, 0, 0]'
p906
I3
sS'[14974, 5141, 643, 266, 44, 24, 18, 18, 9]'
p907
I3
sS'[184, 119, 37, 25, 16, 2]'
p908
I3
sS'[14974, 2028, 444, 35, 15, 0]'
p909
I3
sS'[2028, 459, 140, 76, 35, 11, 9, 2, 0]'
p910
I3
sS'[14974, 5141, 958, 89, 63, 3, 0, 0]'
p911
I3
sS'[2028, 76, 75, 53, 37, 7, 1, 0, 0]'
p912
I3
sS'[14974, 5141, 485, 322, 39, 20, 18, 10, 1]'
p913
I3
sS'[84, 55, 37, 24, 4, 2, 1, 0, 0]'
p914
I3
sS'[37, 20, 3, 0, 0, 0]'
p915
I3
sS'[367, 57, 27, 19, 10, 1, 0, 0, 0]'
p916
I3
sS'[27, 2, 2, 0]'
p917
I3
sS'[14974, 5141, 80, 17, 4, 2, 2, 1]'
p918
I3
sS'[56, 55, 37, 27, 10, 1, 0, 0, 0]'
p919
I3
sS'[14974, 2028, 339, 28, 18, 7, 0, 0]'
p920
I3
sS'[269, 83, 37, 15, 12, 10, 8, 0, 0]'
p921
I3
sS'[17986, 14974, 5141, 958, 57, 19, 6, 0, 0]'
p922
I3
sS'[64, 37, 0]'
p923
I3
sS'[14974, 5141, 62, 33, 9, 1]'
p924
I3
sS'[485, 339, 37, 22, 10, 0, 0, 0]'
p925
I3
sS'[14974, 5141, 333, 103, 62, 23, 16, 10, 0]'
p926
I3
sS'[17986, 2028, 121, 75, 42, 37, 29, 20, 19]'
p927
I3
sS'[444, 37, 16, 15, 9, 5, 0, 0, 0]'
p928
I3
sS'[17986, 2028, 49, 37, 24, 17, 4, 0, 0]'
p929
I3
sS'[2028, 105, 32, 8, 4, 1, 1, 0]'
p930
I3
sS'[2028, 42, 37, 11, 5, 3, 0, 0]'
p931
I3
sS'[17986, 14974, 5141, 958, 126, 4, 0, 0, 0]'
p932
I3
sS'[485, 61, 17, 10, 9, 6, 2, 0, 0]'
p933
I3
sS'[14974, 5141, 356, 175, 86, 14, 1, 0, 0]'
p934
I3
sS'[101, 64, 37, 27, 25, 24, 3, 3, 0]'
p935
I3
sS'[14974, 5141, 139, 23, 18, 11, 8, 6, 0]'
p936
I3
sS'[14974, 5141, 57, 35, 3, 1, 0, 0]'
p937
I3
sS'[2028, 322, 170, 33, 0]'
p938
I3
sS'[17986, 14974, 5141, 958, 145, 86, 5, 3, 1]'
p939
I3
sS'[14974, 5259, 184, 58, 46, 14, 0, 0, 0]'
p940
I1
sS'[2028, 850, 58, 37, 19, 4, 0, 0]'
p941
I3
sS'[366, 322, 39, 37, 22, 1, 1, 0]'
p942
I3
sS'[14974, 5141, 643, 224, 46, 3, 1, 0, 0]'
p943
I3
sS'[2028, 37, 24, 18, 7, 0, 0, 0, 0]'
p944
I3
sS'[14974, 5141, 643, 67, 61, 55, 42, 10, 5]'
p945
I3
sS'[17986, 2028, 339, 56, 45, 37, 0, 0]'
p946
I3
sS'[14974, 246, 52, 37, 36, 0, 0]'
p947
I3
sS'[14974, 2028, 370, 74, 63, 37, 23, 8, 2]'
p948
I3
sS'[5141, 2028, 339, 194, 5, 2, 2, 1, 0]'
p949
I3
sS'[14974, 193, 189, 119, 105, 90, 64, 37, 23]'
p950
I3
sS'[324, 55, 37, 21, 19, 11, 9, 7, 1]'
p951
I3
sS'[115, 83, 31, 27, 15, 5, 1, 0, 0]'
p952
I3
sS'[164, 103, 49, 27, 3, 0]'
p953
I3
sS'[656, 48, 0, 0, 0, 0, 0]'
p954
I1
sS'[101, 78, 59, 56, 27, 0, 0, 0, 0]'
p955
I3
sS'[14974, 5141, 958, 374, 314, 88, 28, 3, 1]'
p956
I3
sS'[194, 187, 42, 27, 26, 15, 9, 7, 0]'
p957
I3
sS'[17986, 14974, 5141, 958, 62, 56, 12, 4, 3]'
p958
I3
sS'[485, 138, 61, 37, 35, 15, 2, 1, 0]'
p959
I3
sS'[58, 40, 37, 1, 0, 0, 0, 0]'
p960
I3
sS'[2028, 83, 25, 2, 2, 0]'
p961
I3
sS'[5141, 1753, 643, 189, 114, 75, 61, 61, 24]'
p962
I3
sS'[79, 75, 70, 37, 11, 2, 2]'
p963
I3
sS'[14974, 5141, 643, 29, 18, 6, 0]'
p964
I3
sS'[14974, 5141, 643, 123, 44, 35, 32, 23, 6]'
p965
I3
sS'[2028, 37, 0]'
p966
I3
sS'[14974, 5141, 958, 217, 150, 13, 4, 0, 0]'
p967
I3
sS'[850, 43, 37, 27, 26, 13, 11, 2, 2]'
p968
I3
sS'[2028, 60, 37, 1, 1, 0, 0, 0]'
p969
I3
sS'[485, 168, 87, 37, 32, 26, 24, 21, 2]'
p970
I3
sS'[5141, 1753, 193, 84, 63, 7, 4, 0, 0]'
p971
I3
sS'[52, 37, 36, 0, 0, 0, 0]'
p972
I3
sS'[17986, 2028, 37, 14, 11, 6, 4, 0, 0]'
p973
I3
sS'[17986, 14974, 5259, 179, 62, 34, 3, 0]'
p974
I1
sS'[27, 2, 0, 0, 0]'
p975
I3
sS'[175, 116, 44, 37, 22, 10, 5, 2, 0]'
p976
I3
sS'[5141, 1753, 643, 485, 215, 10, 7, 1, 1]'
p977
I3
sS'[14974, 5141, 958, 339, 76, 0, 0, 0]'
p978
I3
sS'[14974, 5141, 958, 850, 140, 112, 63, 7, 0]'
p979
I3
sS'[14974, 5141, 103, 30, 24, 23, 15, 9, 3]'
p980
I3
sS'[14974, 339, 251, 189, 76, 57, 37, 26, 22]'
p981
I3
sS'[280, 74, 37, 36, 22, 0, 0, 0, 0]'
p982
I3
sS'[14974, 189, 176, 45, 41, 37, 29, 7, 1]'
p983
I3
sS'[14974, 5141, 7, 5, 0]'
p984
I3
sS'[91, 86, 37, 3, 1, 1, 0, 0, 0]'
p985
I3
sS'[27, 24, 10, 1, 0, 0, 0, 0]'
p986
I3
sS'[61, 54, 27, 26, 1, 0, 0, 0]'
p987
I3
sS'[76, 53, 37, 1, 0, 0]'
p988
I3
sS'[17986, 2028, 339, 75, 37, 6, 1, 0]'
p989
I3
sS'[2028, 176, 86, 53, 23, 10, 8, 4, 0]'
p990
I3
sS'[14974, 58, 49, 44, 37, 25, 23, 4, 4]'
p991
I3
sS'[14974, 5141, 571, 365, 298, 61, 55, 11, 5]'
p992
I3
sS'[5141, 2028, 37, 36, 27, 5, 5, 1, 0]'
p993
I3
sS'[14974, 251, 189, 37, 19, 1, 0, 0, 0]'
p994
I3
sS'[131, 125, 55, 27, 16, 0, 0]'
p995
I3
sS'[17986, 14974, 5141, 958, 10, 4, 0, 0, 0]'
p996
I3
sS'[137, 131, 37, 19, 7, 4, 0, 0]'
p997
I3
sS'[14974, 5259, 0, 0, 0, 0, 0, 0, 0]'
p998
I1
sS'[5141, 356, 189, 131, 37, 5, 4, 0, 0]'
p999
I3
sS'[231, 189, 62, 37, 33]'
p1000
I3
sS'[656, 483, 183, 24, 6, 1, 1, 0, 0]'
p1001
I1
sS'[269, 37, 15, 10, 7, 6, 1, 0, 0]'
p1002
I3
sS'[2028, 66, 56, 45, 36, 28, 17, 12, 0]'
p1003
I3
sS'[17986, 5259, 339, 311, 75, 58, 46, 37, 0]'
p1004
I3
sS'[14974, 5141, 643, 459, 234, 154, 140, 44, 1]'
p1005
I3
sS'[2028, 89, 37, 23, 22, 9, 6, 0]'
p1006
I3
sS'[14974, 5141, 224, 170, 72, 69, 56, 44, 13]'
p1007
I3
sS'[339, 57, 36, 27, 25, 14, 8, 0]'
p1008
I3
sS'[14974, 5141, 958, 339, 28, 0, 0, 0]'
p1009
I3
sS'[2028, 125, 17, 16, 0]'
p1010
I3
sS'[459, 52, 37, 35, 13, 3, 1, 0]'
p1011
I3
sS'[14974, 5141, 958, 150, 13, 2, 1, 0]'
p1012
I3
sS'[333, 150, 139, 37, 8, 7, 3, 1, 0]'
p1013
I3
sS'[2028, 44, 36, 19, 13, 12, 4, 0]'
p1014
I3
sS'[335, 57, 49, 27, 5, 2, 0]'
p1015
I3
sS'[14974, 2028, 46, 40, 38, 37, 1, 0, 0]'
p1016
I3
sS'[179, 61, 49, 27, 26, 12, 6, 0]'
p1017
I3
sS'[17986, 339, 210, 40, 37, 20, 8, 5]'
p1018
I3
sS'[44, 37, 29, 20, 16, 12, 3, 2, 0]'
p1019
I3
sS'[37, 24, 24, 12, 6, 3, 2, 0, 0]'
p1020
I3
sS'[14974, 5141, 958, 131, 6, 5, 2, 0, 0]'
p1021
I3
sS'[17986, 5141, 2028, 188, 96, 9, 0]'
p1022
I3
sS'[2028, 89, 24, 23, 15, 1, 0]'
p1023
I3
sS'[2028, 339, 49, 29, 10, 2, 1, 0, 0]'
p1024
I3
sS'[14974, 5141, 247, 164, 79, 6, 1, 0]'
p1025
I3
sS'[170, 103, 78, 27, 27, 12, 2, 0, 0]'
p1026
I3
sS'[339, 333, 86, 69, 37, 29, 22, 13, 4]'
p1027
I3
sS'[17986, 485, 115, 37, 7, 1, 0, 0, 0]'
p1028
I3
sS'[17986, 14974, 5141, 30, 17, 16, 14, 13, 13]'
p1029
I3
sS'[14974, 5141, 958, 72, 58, 57, 16, 1, 1]'
p1030
I3
sS'[5141, 356, 339, 76, 59, 27, 26, 19, 0]'
p1031
I3
sS'[17986, 367, 216, 65, 56, 37, 31, 21, 16]'
p1032
I3
sS'[269, 89, 37, 24, 22, 19, 10, 0]'
p1033
I3
sS'[14974, 5141, 958, 850, 485, 179, 61, 4, 2]'
p1034
I3
sS'[74, 37, 6, 2, 1, 0, 0, 0, 0]'
p1035
I3
sS'[227, 115, 37, 28, 27, 22, 5, 0]'
p1036
I3
sS'[14974, 5141, 958, 367, 89, 9, 6, 1, 0]'
p1037
I3
sS'[14974, 5141, 643, 339, 251, 6, 3, 2, 0]'
p1038
I3
sS'[17986, 193, 122, 113, 109, 37, 26, 0]'
p1039
I3
sS'[14974, 5141, 115, 58, 54, 33, 19, 17, 1]'
p1040
I3
sS'[14974, 5141, 34, 12, 6, 0, 0, 0, 0]'
p1041
I3
sS'[69, 37, 0]'
p1042
I3
sS'[656, 175, 14, 3, 0, 0, 0]'
p1043
I1
sS'[610, 44, 37, 0, 0, 0]'
p1044
I3
sS'[356, 339, 37, 36, 35, 5, 0, 0]'
p1045
I3
sS'[14974, 2028, 189, 176, 45, 41, 37, 29, 7]'
p1046
I3
sS'[14974, 5141, 958, 177, 15, 4, 4, 1, 0]'
p1047
I3
sS'[2028, 224, 103, 90, 1, 0]'
p1048
I3
sS'[57, 37, 0]'
p1049
I3
sS'[444, 50, 37, 27, 15, 0, 0, 0, 0]'
p1050
I3
sS'[14974, 5141, 170, 72, 56, 36, 35, 11, 0]'
p1051
I3
sS'[14974, 5141, 356, 31, 25, 24, 1, 0, 0]'
p1052
I3
sS'[17986, 2028, 194, 138, 37, 12, 9, 3, 1]'
p1053
I3
sS'[17986, 14974, 5141, 958, 850, 51, 4, 0, 0]'
p1054
I3
sS'[37, 18, 11, 6, 3, 2, 1, 0, 0]'
p1055
I3
sS'[14974, 5141, 643, 25, 9, 5, 0, 0]'
p1056
I3
sS'[56, 37, 17, 2, 2, 1, 0]'
p1057
I3
sS'[374, 124, 37, 34, 5, 5, 3, 0, 0]'
p1058
I3
sS'[2028, 131, 30, 18, 8, 0, 0]'
p1059
I3
sS'[2028, 180, 63, 37, 9, 9, 6, 3, 1]'
p1060
I3
sS'[14974, 5141, 240, 227, 31, 28, 19, 0]'
p1061
I3
sS'[49, 41, 37, 36, 27, 13, 12, 10, 0]'
p1062
I3
sS'[78, 59, 37, 16, 2, 1, 1, 0, 0]'
p1063
I3
sS'[14974, 5141, 958, 302, 61, 21, 1, 0, 0]'
p1064
I3
sS'[17986, 2028, 339, 75, 57, 37, 32, 0]'
p1065
I3
sS'[83, 27, 6, 2, 0, 0]'
p1066
I3
sS'[189, 140, 37, 14, 12, 9, 7, 5, 0]'
p1067
I3
sS'[91, 37, 27, 24, 16, 5, 1, 0, 0]'
p1068
I3
sS'[14974, 5141, 958, 53, 35, 29, 23, 18, 11]'
p1069
I3
sS'[335, 96, 37, 21, 16, 3, 0, 0, 0]'
p1070
I3
sS'[14974, 5141, 10]'
p1071
I3
sS'[485, 163, 85, 68, 37, 24, 16, 10, 0]'
p1072
I3
sS'[14974, 5141, 356, 76, 54, 13, 11, 7, 2]'
p1073
I3
sS'[14974, 5141, 132, 78, 30, 20, 17, 3, 0]'
p1074
I3
sS'[14974, 5141, 113, 49, 28, 18, 12, 3, 1]'
p1075
I3
sS'[17986, 2028, 286, 168, 143, 59, 37, 16, 8]'
p1076
I3
sS'[14974, 5141, 366, 356, 23, 0, 0]'
p1077
I3
sS'[14974, 5141, 958, 125, 67, 2, 0, 0, 0]'
p1078
I3
sS'[14974, 6169, 366, 0]'
p1079
I2
sS'[322, 246, 103, 27, 18, 1, 0, 0, 0]'
p1080
I3
sS'[14974, 5141, 8, 3]'
p1081
I3
sS'[17986, 14974, 5141, 188, 145, 134, 89, 39, 29]'
p1082
I3
sS'[2028, 256, 53, 37, 29, 14, 13, 8, 0]'
p1083
I3
sS'[2028, 339, 187, 82, 75, 57, 37, 25, 18]'
p1084
I3
sS'[14974, 5141, 643, 87, 8, 6, 1, 0, 0]'
p1085
I3
sS'[14974, 5141, 775, 68, 16, 11, 5, 0]'
p1086
I3
sS'[14974, 5141, 958, 99, 49, 2, 0, 0]'
p1087
I3
sS'[485, 83, 61, 1, 0, 0, 0]'
p1088
I3
sS'[14974, 5141, 643, 485, 10, 6, 0, 0, 0]'
p1089
I3
sS'[46, 45, 37, 36, 24, 19, 14, 10, 7]'
p1090
I3
sS'[14974, 5141, 643, 29, 26, 18, 0, 0]'
p1091
I3
sS'[14974, 5141, 111, 94, 69, 6, 0, 0]'
p1092
I3
sS'[17986, 189, 131, 37, 11, 11, 3, 0, 0]'
p1093
I3
sS'[14974, 5141, 356, 23, 4, 4, 1, 0, 0]'
p1094
I3
sS'[51, 27, 13, 0, 0]'
p1095
I3
sS'[37, 27, 17, 1, 1, 0, 0]'
p1096
I3
sS'[14974, 5259, 370, 366, 183, 115, 91, 27, 12]'
p1097
I1
sS'[14974, 5141, 161, 82, 62, 22, 10, 4, 3]'
p1098
I3
sS'[14974, 5141, 58, 0]'
p1099
I3
sS'[14974, 5141, 958, 224, 112, 29, 11, 2, 1]'
p1100
I3
sS'[17986, 2028, 7, 2, 0, 0]'
p1101
I3
sS'[143, 59, 27, 24, 17, 0, 0]'
p1102
I3
sS'[14974, 5141, 958, 89, 55, 36, 8, 0, 0]'
p1103
I3
sS'[14974, 5141, 850, 125, 78, 58, 46, 39, 7]'
p1104
I3
sS'[17986, 14974, 5141, 958, 215, 86, 80, 11, 1]'
p1105
I3
sS'[92, 89, 62, 59, 37, 15, 11, 3, 0]'
p1106
I3
sS'[14974, 5141, 130, 80, 39, 32, 8, 7, 0]'
p1107
I3
sS'[14974, 5141, 958, 99, 57, 49, 0]'
p1108
I3
sS'[14974, 2028, 485, 189, 138, 49, 37, 34, 28]'
p1109
I3
sS'[149, 37, 5, 0, 0, 0, 0]'
p1110
I3
sS'[14974, 5141, 958, 89, 63, 4, 4, 3, 0]'
p1111
I3
sS'[17986, 2028, 485, 339, 189, 37, 5, 2, 1]'
p1112
I3
sS'[17986, 485, 339, 37, 19, 10, 2, 1, 0]'
p1113
I3
sS'[14974, 5141, 36, 10, 6, 0, 0, 0, 0]'
p1114
I3
sS'[101, 37, 26, 12, 1, 0]'
p1115
I3
sS'[40, 17, 14, 8]'
p1116
I3
sS'[14974, 5141, 643, 56, 4, 2, 0, 0, 0]'
p1117
I3
sS'[14974, 5141, 356, 48, 28, 4, 3, 3, 0]'
p1118
I3
sS'[179, 56, 27, 16, 0, 0, 0]'
p1119
I3
sS'[14974, 5141, 78, 49, 43, 34, 25, 5, 0]'
p1120
I3
sS'[14974, 5141, 643, 246, 224, 188, 87, 18, 16]'
p1121
I3
sS'[14974, 5141, 643, 189, 75, 19, 18, 12, 5]'
p1122
I3
sS'[14974, 5141, 356, 106, 57, 34, 30, 15, 13]'
p1123
I3
sS'[14974, 5141, 958, 189, 61, 12, 6, 3, 1]'
p1124
I3
sS'[14974, 5141, 324, 110, 0]'
p1125
I3
sS'[14974, 5141, 111, 69, 49, 44, 27, 4, 3]'
p1126
I3
sS'[2028, 24, 22, 20, 0]'
p1127
I3
sS'[14974, 5141, 189, 150, 123, 3, 1, 0, 0]'
p1128
I3
sS'[14974, 5141, 958, 77, 56, 7, 0, 0, 0]'
p1129
I3
sS'[45, 17, 10, 5, 1]'
p1130
I3
sS'[14974, 5141, 850, 643, 34, 0, 0, 0]'
p1131
I3
sS'[138, 37, 27, 0, 0, 0, 0]'
p1132
I3
sS'[485, 75, 65, 61, 43, 26, 0, 0]'
p1133
I3
sS'[2028, 643, 610, 37, 32, 31, 0, 0, 0]'
p1134
I3
sS'[485, 118, 27, 24, 22, 15, 5, 3, 0]'
p1135
I3
sS'[94, 54, 37, 28, 20, 4, 0]'
p1136
I3
sS'[17986, 14974, 5141, 80, 49, 27, 17, 0, 0]'
p1137
I3
sS'[17986, 14974, 5141, 958, 339, 75, 1, 1, 0]'
p1138
I3
sS'[5141, 103, 27, 12, 12, 10, 6, 4, 0]'
p1139
I3
sS'[14974, 5141, 246, 8, 2, 1, 0, 0]'
p1140
I3
sS'[356, 49, 37, 34, 27, 4, 1, 0, 0]'
p1141
I3
sS'[42, 37, 32, 13, 8, 0, 0, 0, 0]'
p1142
I3
sS'[656, 269, 63, 54, 47, 44, 23, 11, 7]'
p1143
I1
sS'[5141, 356, 149, 126, 83, 80, 37, 27, 0]'
p1144
I3
sS'[130, 27, 0, 0, 0]'
p1145
I3
sS'[164, 79, 63, 44, 33, 29, 13, 13, 12]'
p1146
I3
sS'[251, 89, 56, 37, 11, 3, 0]'
p1147
I3
sS'[2028, 103, 37, 19, 18, 6, 0, 0]'
p1148
I3
sS'[14974, 5141, 643, 189, 188, 123, 92, 0, 0]'
p1149
I3
sS'[14974, 5141, 958, 106, 20, 0, 0, 0, 0]'
p1150
I3
sS'[14974, 5141, 958, 32, 6, 2, 0, 0, 0]'
p1151
I3
sS'[14974, 5141, 485, 339, 95, 22, 11, 2]'
p1152
I3
sS'[61, 34, 27, 4, 0]'
p1153
I3
sS'[14974, 5141, 240, 227, 128, 34, 19, 5, 3]'
p1154
I3
sS'[14974, 5141, 409, 69, 39, 35, 30, 7, 4]'
p1155
I3
sS'[14974, 5141, 194, 189, 188, 123, 86, 49, 42]'
p1156
I3
sS'[14974, 5141, 94, 58, 16, 12, 12, 11, 5]'
p1157
I3
sS'[14974, 5141, 130, 32, 1, 1, 1, 0, 0]'
p1158
I3
sS'[14974, 5141, 643, 61, 55, 42, 5, 1, 0]'
p1159
I3
sS'[14974, 5141, 643, 52, 12, 7, 3, 0]'
p1160
I3
sS'[14974, 5141, 643, 485, 76, 67, 39, 30, 21]'
p1161
I3
sS'[14974, 5141, 288, 193, 11, 11, 7, 0]'
p1162
I3
sS'[17986, 702, 656, 14, 2, 0, 0, 0, 0]'
p1163
I1
sS'[444, 73, 37, 16, 3, 1, 1, 0, 0]'
p1164
I3
sS'[14974, 5259, 702, 59, 58, 10, 9, 1, 0]'
p1165
I1
sS'[32, 29, 28, 27, 11, 8, 0]'
p1166
I3
sS'[37, 25, 1]'
p1167
I3
sS'[246, 52, 37, 36, 0, 0]'
p1168
I3
sS'[485, 63, 61, 59, 32, 8, 0]'
p1169
I3
sS'[66, 61, 56, 28, 4, 3, 0, 0]'
p1170
I3
sS'[17986, 335, 89, 37, 12, 6, 2]'
p1171
I3
sS'[2028, 131, 18, 8, 8, 0, 0]'
p1172
I3
sS'[14974, 5141, 356, 215, 162, 65, 26, 17, 5]'
p1173
I3
sS'[14974, 5259, 702, 129, 81, 26, 0, 0]'
p1174
I1
sS'[76, 37, 30, 30, 27, 23, 12, 4, 3]'
p1175
I3
sS'[322, 27, 3, 1, 1, 0, 0, 0]'
p1176
I3
sS'[850, 656, 46, 33]'
p1177
I1
sS'[83, 61, 53, 39, 37, 27, 20, 6, 0]'
p1178
I3
sS'[14974, 5141, 247, 83, 44, 26, 26, 6, 2]'
p1179
I3
sS'[2028, 56, 37, 22, 10, 0, 0, 0, 0]'
p1180
I3
sS'[14974, 5141, 643, 144, 101, 62, 0, 0, 0]'
p1181
I3
sS'[14974, 5141, 958, 131, 6, 2, 1, 0, 0]'
p1182
I3
sS'[14974, 5141, 367, 189, 109, 86, 59, 34, 22]'
p1183
I3
sS'[14974, 6169, 152, 84, 81, 28, 20, 16, 0]'
p1184
I2
sS'[14974, 5141, 958, 374, 324, 27, 26, 21, 9]'
p1185
I3
sS'[14974, 5141, 193, 147, 123, 49, 17, 7, 7]'
p1186
I3
sS'[14974, 5141, 958, 188, 131, 52, 15, 2, 0]'
p1187
I3
sS'[167, 76, 37, 37, 12, 5, 2, 1, 1]'
p1188
I3
sS'[485, 244, 115, 95, 37, 27, 24, 19, 18]'
p1189
I3
sS'[14974, 5141, 99, 91, 56, 26, 14, 0, 0]'
p1190
I3
sS'[14974, 5141, 92, 46, 8, 6, 1, 0, 0]'
p1191
I3
sS'[14974, 5141, 210, 138, 116, 103, 46, 38, 34]'
p1192
I3
sS'[14974, 5141, 356, 177, 105, 63, 24, 10, 4]'
p1193
I3
sS'[2028, 335, 333, 33, 14, 7, 6, 0, 0]'
p1194
I3
sS'[246, 37, 36, 0, 0, 0, 0, 0, 0]'
p1195
I3
sS'[103, 83, 46, 37, 16, 12, 11, 1, 0]'
p1196
I3
sS'[37, 19, 0, 0, 0, 0]'
p1197
I3
sS'[17986, 5141, 2028, 34, 12, 11, 0, 0]'
p1198
I3
sS'[14974, 2028, 356, 165, 76, 58, 54, 34, 23]'
p1199
I3
sS'[14974, 5141, 37, 26, 0]'
p1200
I3
sS'[14974, 5141, 2028, 958, 189, 69, 42, 17, 7]'
p1201
I3
sS'[188, 37, 33, 25, 11, 4, 1]'
p1202
I3
sS'[269, 167, 149, 125, 61, 37, 31, 27, 17]'
p1203
I3
sS'[14974, 5141, 958, 61, 35, 12, 1, 0, 0]'
p1204
I3
sS'[17986, 2028, 234, 59, 37, 37, 5, 3, 1]'
p1205
I3
sS'[444, 246, 37, 36, 1, 0, 0, 0]'
p1206
I3
sS'[14974, 5141, 151, 103, 18, 13, 8, 0, 0]'
p1207
I3
sS'[17986, 14974, 5141, 643, 24, 18, 2, 1, 0]'
p1208
I3
sS'[14974, 167, 81, 77, 64, 38, 38, 0, 0]'
p1209
I1
sS'[14974, 5141, 45, 25, 0, 0]'
p1210
I3
sS'[14974, 5141, 643, 87, 29, 13, 5, 2, 1]'
p1211
I3
sS'[14974, 5141, 89, 9, 0, 0]'
p1212
I3
sS'[2028, 333, 111, 37, 32, 9, 2, 2, 2]'
p1213
I3
sS'[17986, 14974, 5141, 958, 86, 57, 7, 2, 0]'
p1214
I3
sS'[194, 74, 23, 8, 5, 3, 0]'
p1215
I3
sS'[339, 335, 28, 22, 15, 13, 10, 0, 0]'
p1216
I3
sS'[14974, 5141, 958, 149, 89, 7, 1, 0]'
p1217
I3
sS'[14974, 5141, 236, 131, 32, 31, 8, 6, 5]'
p1218
I3
sS'[17986, 138, 37, 26, 24, 6, 3, 0, 0]'
p1219
I3
sS'[135, 69, 37, 31, 27, 0]'
p1220
I3
sS'[14974, 2028, 188, 150, 147, 61, 37, 32, 11]'
p1221
I3
sS'[246, 168, 37, 36, 29, 0, 0]'
p1222
I3
sS'[14974, 5141, 115, 75, 10, 2, 1, 0, 0]'
p1223
I3
sS'[14974, 5141, 643, 89, 6, 1, 0]'
p1224
I3
sS'[17986, 14974, 5141, 958, 65, 7, 0, 0, 0]'
p1225
I3
sS'[119, 77, 37, 10, 7, 6, 1, 0, 0]'
p1226
I3
sS'[2028, 168, 97, 12, 10, 8, 4, 3, 2]'
p1227
I3
sS'[138, 56, 53, 50, 39, 37, 30, 3, 0]'
p1228
I3
sS'[14974, 5141, 958, 28, 9, 7, 0, 0, 0]'
p1229
I3
sS'[2028, 91, 86, 3, 0, 0, 0]'
p1230
I3
sS'[14974, 5141, 356, 174, 4, 0, 0]'
p1231
I3
sS'[2028, 322, 106, 66, 30, 20, 15, 2, 0]'
p1232
I3
sS'[14974, 5141, 211, 78, 35, 7, 1, 0, 0]'
p1233
I3
sS'[14974, 5141, 123, 83, 49, 34, 5, 1, 0]'
p1234
I3
sS'[605, 175, 37, 16, 16, 2, 1, 0]'
p1235
I3
sS'[14974, 5141, 179, 93, 57, 54, 34, 0, 0]'
p1236
I3
sS'[59, 27, 17, 13, 2, 0, 0, 0]'
p1237
I3
sS'[322, 246, 103, 37, 27, 26, 0, 0]'
p1238
I3
sS'[203, 177, 28, 27, 14, 12, 6, 6, 4]'
p1239
I3
sS'[68, 37, 32, 8, 3, 0, 0, 0, 0]'
p1240
I3
sS'[14974, 75, 39, 37, 24, 11, 8, 8, 4]'
p1241
I3
sS'[14974, 5141, 958, 850, 77, 56, 30, 7, 0]'
p1242
I3
sS'[17986, 14974, 5141, 958, 6, 0, 0, 0]'
p1243
I3
sS'[17986, 14974, 5141, 643, 485, 176, 46, 11, 6]'
p1244
I3
sS'[93, 79, 37, 36, 26, 14, 5, 0, 0]'
p1245
I3
sS'[17986, 75, 67, 37, 20, 17, 14, 4, 1]'
p1246
I3
sS'[168, 37, 34, 1, 0]'
p1247
I3
sS'[14974, 5141, 367, 177, 138, 12, 8, 4, 1]'
p1248
I3
sS'[14974, 6169, 91, 44, 32, 24, 3, 2, 0]'
p1249
I2
sS'[14974, 5141, 958, 356, 160, 23, 3, 0, 0]'
p1250
I3
sS'[14974, 5259, 183, 16, 8, 3, 0, 0, 0]'
p1251
I1
sS'[27, 18, 17, 12, 10, 2, 1, 0]'
p1252
I3
sS'[335, 37, 35, 24, 18, 14, 0, 0, 0]'
p1253
I3
sS'[14974, 5141, 958, 6, 0, 0, 0, 0, 0]'
p1254
I3
sS'[14974, 5141, 972, 610, 103, 29, 27, 26, 2]'
p1255
I3
sS'[17986, 485, 75, 49, 37, 17, 0, 0, 0]'
p1256
I3
sS'[14974, 5141, 958, 247, 63, 11, 5, 1, 0]'
p1257
I3
sS'[14974, 5141, 193, 102, 46, 45, 26, 25, 10]'
p1258
I3
sS'[2028, 25, 6, 4, 4, 0, 0]'
p1259
I3
sS'[69, 61, 3, 0, 0]'
p1260
I3
sS'[14974, 5141, 184, 175, 126, 66, 57, 11, 6]'
p1261
I3
sS'[14974, 5141, 958, 215, 86, 20, 13, 0, 0]'
p1262
I3
sS'[14974, 5141, 643, 54, 26, 5, 2, 0]'
p1263
I3
sS'[14974, 5141, 370, 22, 17, 13, 13, 7, 3]'
p1264
I3
sS'[14974, 5141, 356, 76, 21, 11, 7, 1, 0]'
p1265
I3
sS'[14974, 5141, 610, 356, 260, 10, 4, 2, 0]'
p1266
I3
sS'[17986, 14974, 5141, 958, 13, 11, 0, 0, 0]'
p1267
I3
sS'[14974, 2028, 188, 103, 37, 0, 0]'
p1268
I3
sS'[14974, 2028, 251, 189, 37, 19, 12, 2, 0]'
p1269
I3
sS'[14974, 5141, 82, 0, 0, 0]'
p1270
I3
sS'[485, 101, 27, 25, 2, 0, 0, 0]'
p1271
I3
sS'[14974, 2028, 189, 177, 66, 9, 0]'
p1272
I3
sS'[14974, 5141, 5, 0]'
p1273
I3
sS'[14974, 5141, 194, 106, 80, 61, 55, 11, 3]'
p1274
I3
sS'[14974, 130, 32, 13, 5, 1, 1, 0, 0]'
p1275
I3
sS'[14974, 5141, 179, 57, 54, 34, 11, 0, 0]'
p1276
I3
sS'[2028, 61, 60, 38, 37, 34, 21, 13, 8]'
p1277
I3
sS'[38, 37]'
p1278
I3
sS'[115, 83, 56, 37, 35, 17, 15, 5, 1]'
p1279
I3
sS'[53, 37, 34, 25, 0, 0, 0, 0]'
p1280
I3
sS'[17986, 14974, 5141, 571, 444, 159, 56, 36, 22]'
p1281
I3
sS'[14974, 5141, 643, 87, 32, 18, 9, 4]'
p1282
I3
sS'[374, 58, 38, 37, 11, 5, 2, 1]'
p1283
I3
sS'[14974, 5141, 958, 35, 29, 6, 5, 2, 0]'
p1284
I3
sS'[163, 61, 37, 4, 2, 1, 0, 0, 0]'
p1285
I3
sS'[17986, 2028, 227, 131, 37, 25, 15, 2, 1]'
p1286
I3
sS'[234, 189, 37, 7, 6, 2, 0, 0, 0]'
p1287
I3
sS'[14974, 5141, 2028, 643, 61, 39, 13, 2, 0]'
p1288
I3
sS'[17986, 14974, 5141, 850, 227, 113, 42, 23, 12]'
p1289
I3
sS'[17986, 57, 51, 49, 37, 21, 10, 5, 3]'
p1290
I3
sS'[53, 37, 34, 27, 25, 0, 0]'
p1291
I3
sS'[14974, 5141, 240, 227, 31, 28, 22, 3, 2]'
p1292
I3
sS'[156, 27, 27, 26, 3, 0]'
p1293
I3
sS'[17986, 5141, 203, 61, 37, 21, 14, 11, 6]'
p1294
I3
sS'[17986, 14974, 5141, 958, 72, 45, 0, 0, 0]'
p1295
I3
sS'[656, 324, 147, 0]'
p1296
I1
sS'[14974, 5141, 850, 176, 81, 16, 15, 7, 5]'
p1297
I3
sS'[14974, 5141, 57, 16, 12, 12, 12, 11, 5]'
p1298
I3
sS'[370, 76, 27, 12, 6, 0, 0]'
p1299
I3
sS'[18774, 850, 62, 37, 33, 4]'
p1300
I3
sS'[14974, 5141, 958, 57, 1, 0, 0, 0, 0]'
p1301
I3
sS'[14974, 5141, 958, 215, 131, 99, 86, 31, 6]'
p1302
I3
sS'[17986, 444, 115, 90, 64, 37, 33, 10, 3]'
p1303
I3
sS'[356, 37, 27, 0, 0, 0, 0]'
p1304
I3
sS'[2028, 106, 102, 75, 18, 15, 11, 0, 0]'
p1305
I3
sS'[2028, 339, 177, 75, 39, 6, 0]'
p1306
I3
sS'[14974, 5141, 459, 23, 9, 9, 9, 0]'
p1307
I3
sS'[17986, 37, 22, 14, 0]'
p1308
I3
sS'[2028, 409, 22, 5, 3, 0, 0, 0]'
p1309
I3
sS'[14974, 5141, 370, 189, 13, 8, 5, 0, 0]'
p1310
I3
sS'[1753, 130, 106, 32, 7, 5, 0, 0]'
p1311
I3
sS'[14974, 5141, 2028, 247, 194, 4, 4, 0]'
p1312
I3
sS'[17986, 339, 76, 22, 3, 1, 0, 0]'
p1313
I3
sS'[17986, 115, 111, 37, 6, 0]'
p1314
I3
sS'[444, 86, 37, 16, 1]'
p1315
I3
sS'[14974, 5141, 958, 485, 24, 0, 0, 0, 0]'
p1316
I3
sS'[211, 59, 58, 46, 37, 19, 17, 14, 3]'
p1317
I3
sS'[14974, 5141, 643, 370, 246, 131, 89, 75, 25]'
p1318
I3
sS'[22, 6, 0, 0, 0]'
p1319
I3
sS'[246, 52, 37, 36, 0, 0, 0, 0]'
p1320
I3
sS'[30, 27, 26, 15, 6, 2, 0, 0]'
p1321
I3
sS'[14974, 5141, 958, 8, 7, 5, 0, 0, 0]'
p1322
I3
sS'[2028, 610, 260, 168, 113, 29, 22, 0, 0]'
p1323
I3
sS'[339, 269, 131, 89, 37, 36, 33, 11, 11]'
p1324
I3
sS'[17986, 2028, 94, 37, 12, 9, 4, 4, 0]'
p1325
I3
sS'[2028, 26, 23, 5, 4, 0, 0, 0, 0]'
p1326
I3
sS'[2028, 266, 37, 1, 0, 0, 0, 0]'
p1327
I3
sS'[14974, 5259, 286, 183, 129, 100, 39, 23, 0]'
p1328
I1
sS'[14974, 5141, 34, 12, 0, 0]'
p1329
I3
sS'[14974, 5141, 958, 24, 3, 2, 0, 0]'
p1330
I3
sS'[14974, 5141, 179, 57, 54, 34, 0, 0, 0]'
p1331
I3
sS'[17986, 14974, 5141, 643, 444, 44, 26, 24, 18]'
p1332
I3
sS'[656, 269, 266, 224, 0, 0, 0]'
p1333
I1
sS'[14974, 850, 87, 65, 43, 37, 5, 3, 2]'
p1334
I3
sS'[485, 66, 62, 37, 30, 22, 5, 4, 3]'
p1335
I3
sS'[14974, 5141, 179, 21, 16, 0, 0]'
p1336
I3
sS'[14974, 5141, 958, 177, 15, 4, 1, 0, 0]'
p1337
I3
sS'[103, 49, 37, 36, 27, 1, 1, 0]'
p1338
I3
sS'[367, 219, 184, 105, 67, 37, 6, 5, 1]'
p1339
I3
sS'[5141, 96, 37, 36, 27, 10, 0, 0, 0]'
p1340
I3
sS'[219, 129, 110, 84, 75, 37, 5, 5]'
p1341
I3
sS'[2028, 88, 15, 10, 5, 0, 0, 0, 0]'
p1342
I3
sS'[14974, 37, 8, 2, 0, 0]'
p1343
I3
sS'[17986, 14974, 5141, 958, 112, 89, 3, 1, 0]'
p1344
I3
sS'[14974, 2028, 958, 72, 32, 0, 0, 0, 0]'
p1345
I3
sS'[14974, 322, 76, 37, 9, 2, 1, 1, 0]'
p1346
I3
sS'[14974, 5141, 224, 106, 31, 4, 0, 0]'
p1347
I3
sS'[298, 179, 28, 27, 20, 4, 0, 0]'
p1348
I3
sS'[14974, 5141, 958, 26, 16, 9, 0, 0]'
p1349
I3
sS'[2028, 103, 19, 18, 6, 0, 0]'
p1350
I3
sS'[14974, 5141, 958, 374, 62, 3, 1, 0, 0]'
p1351
I3
sS'[14974, 5141, 958, 27, 26, 21, 9, 1, 0]'
p1352
I3
sS'[246, 48, 37, 36, 3, 0, 0, 0, 0]'
p1353
I3
sS'[14974, 5141, 8, 0, 0, 0]'
p1354
I3
sS'[14974, 5141, 958, 339, 11, 3, 0]'
p1355
I3
sS'[75, 49, 38, 27, 23, 22, 0]'
p1356
I3
sS'[17986, 2028, 444, 170, 84, 43, 37, 2, 0]'
p1357
I3
sS'[17986, 2028, 339, 269, 37, 29, 3, 1, 0]'
p1358
I3
sS'[17986, 14974, 5141, 247, 224, 63, 27, 15, 12]'
p1359
I3
sS'[374, 322, 121, 105, 37, 26, 13, 5, 1]'
p1360
I3
sS'[5141, 2028, 34, 28, 21, 4, 0]'
p1361
I3
sS'[49, 37, 16, 15]'
p1362
I3
sS'[17986, 14974, 5141, 958, 485, 13, 2, 0, 0]'
p1363
I3
sS'[231, 109, 39, 37, 37, 34, 33, 17, 11]'
p1364
I3
sS'[2028, 37, 16, 4, 1, 0, 0, 0]'
p1365
I3
sS'[14974, 5141, 168, 131, 32, 22]'
p1366
I3
sS'[14974, 5141, 958, 61, 1, 1, 1, 0, 0]'
p1367
I3
sS'[374, 175, 37, 9, 3]'
p1368
I3
sS'[17986, 14974, 5141, 266, 78, 34, 24, 22, 13]'
p1369
I3
sS'[106, 74, 27, 10, 8, 6, 4, 0]'
p1370
I3
sS'[17986, 2028, 76, 37, 34, 24, 15, 12, 5]'
p1371
I3
sS'[14974, 5141, 958, 66, 58, 54, 22, 0, 0]'
p1372
I3
sS'[14974, 5141, 367, 324, 144, 30, 7, 0, 0]'
p1373
I3
sS'[76, 67, 30, 27, 25, 0, 0, 0]'
p1374
I3
sS'[14974, 5141, 958, 89, 75, 2, 0, 0, 0]'
p1375
I3
sS'[111, 106, 79, 67, 37, 27, 17, 12, 6]'
p1376
I3
sS'[215, 121, 93, 67, 54, 37, 23, 1]'
p1377
I3
sS'[134, 37, 27, 4, 3, 3, 1, 0, 0]'
p1378
I3
sS'[14974, 5141, 958, 149, 89, 10, 7, 1, 0]'
p1379
I3
sS'[37, 24, 16, 0, 0, 0, 0]'
p1380
I3
sS'[14974, 2028, 105, 39, 37, 9, 4, 0, 0]'
p1381
I3
sS'[57, 37, 20, 13, 8, 0, 0, 0]'
p1382
I3
sS'[2028, 189, 89, 37, 23, 16, 1, 1, 0]'
p1383
I3
sS'[14974, 5259, 702, 50, 30, 1, 0, 0, 0]'
p1384
I1
sS'[17986, 129, 61, 57, 37, 0, 0, 0]'
p1385
I3
sS'[111, 66, 38, 37, 25, 6, 5, 0]'
p1386
I3
sS'[76, 37, 32, 27, 23, 8, 3, 0, 0]'
p1387
I3
sS'[14974, 2028, 356, 184, 39, 37, 30, 8, 8]'
p1388
I3
sS'[14974, 5141, 34, 27, 12, 6, 2, 0, 0]'
p1389
I3
sS'[17986, 76, 53, 37, 29, 27, 1, 0, 0]'
p1390
I3
sS'[17986, 2028, 444, 374, 346, 298, 82, 37, 35]'
p1391
I3
sS'[1753, 58, 37, 22, 1, 0, 0, 0]'
p1392
I3
sS'[14974, 5141, 811, 339, 322, 57, 11, 1, 0]'
p1393
I3
sS'[17986, 485, 87, 52, 37, 11, 0, 0, 0]'
p1394
I3
sS'[66, 61, 23, 9, 8, 6, 3, 0]'
p1395
I3
sS'[2028, 26, 3, 0]'
p1396
I3
sS'[14974, 5141, 485, 140, 88, 50, 37, 22, 12]'
p1397
I3
sS'[17986, 14974, 5141, 44, 0, 0, 0]'
p1398
I3
sS'[2028, 339, 75, 42, 22, 5, 0]'
p1399
I3
sS'[14974, 5141, 356, 149, 58, 41, 4, 1, 0]'
p1400
I3
sS'[14974, 5141, 643, 113, 66, 18, 5, 2, 1]'
p1401
I3
sS'[17986, 62, 37, 4, 0, 0, 0, 0]'
p1402
I3
sS'[2028, 44, 39, 37, 25, 18, 15, 7, 2]'
p1403
I3
sS'[53, 32, 27, 8, 5, 1, 0]'
p1404
I3
sS'[14974, 5141, 958, 339, 11, 3, 0, 0, 0]'
p1405
I3
sS'[269, 37, 25, 16, 4, 1, 1, 0, 0]'
p1406
I3
sS'[17986, 485, 61, 61, 0, 0, 0, 0]'
p1407
I3
sS'[14974, 1753, 211, 176, 154, 93, 57, 30, 6]'
p1408
I2
sS'[14974, 5141, 958, 6, 2, 0, 0]'
p1409
I3
sS'[14974, 5141, 958, 339, 102, 7, 0, 0, 0]'
p1410
I3
sS'[17986, 14974, 5141, 184, 18, 14, 1, 1, 0]'
p1411
I3
sS'[37, 10, 6, 0]'
p1412
I3
sS'[14974, 5141, 115, 25, 17, 10]'
p1413
I3
sS'[27, 23, 0, 0]'
p1414
I3
sS'[2028, 37, 15, 13, 0, 0]'
p1415
I3
sS'[17986, 14974, 5141, 958, 15, 0, 0, 0]'
p1416
I3
sS'[27, 24, 10, 4, 4, 0, 0, 0]'
p1417
I3
sS'[14974, 5141, 247, 106, 40, 38, 17, 7, 4]'
p1418
I3
sS'[141, 55, 37, 10, 7, 1, 1, 0, 0]'
p1419
I3
sS'[210, 193, 179, 49, 37, 25, 23, 12, 9]'
p1420
I3
sS'[14974, 5141, 643, 17, 13, 1]'
p1421
I3
sS'[14974, 5141, 958, 56, 46, 17, 13, 2, 1]'
p1422
I3
sS'[14974, 5141, 958, 189, 51, 7, 0, 0]'
p1423
I3
sS'[37, 17, 5, 5, 0, 0, 0]'
p1424
I3
sS'[215, 156, 132, 37, 9, 3, 2]'
p1425
I3
sS'[17986, 77, 69, 37, 27, 0, 0]'
p1426
I3
sS'[147, 121, 75, 37, 0]'
p1427
I3
sS'[14974, 5141, 972, 850, 643, 208, 111, 9, 2]'
p1428
I3
sS'[459, 188, 89, 37, 35, 2, 2, 0, 0]'
p1429
I3
sS'[17986, 246, 52, 37, 36, 7, 3, 0, 0]'
p1430
I3
sS'[17986, 14974, 5141, 958, 339, 333, 75, 4, 3]'
p1431
I3
sS'[74, 61, 29, 27, 4, 0]'
p1432
I3
sS'[2028, 1753, 127, 32, 28, 22, 7, 5, 4]'
p1433
I3
sS'[14974, 5141, 958, 87, 6, 4, 2, 1, 0]'
p1434
I3
sS'[17986, 850, 162, 133, 53, 37, 27, 1, 1]'
p1435
I3
sS'[14974, 5141, 356, 44, 30, 24, 1, 0]'
p1436
I3
sS'[91, 74, 36, 34, 27, 15, 4, 3, 0]'
p1437
I3
sS'[14974, 5141, 643, 485, 311, 39, 30, 29, 18]'
p1438
I3
sS'[2028, 643, 60, 50, 31, 29, 29, 9, 0]'
p1439
I3
sS'[126, 90, 61, 49, 37, 27, 4, 0]'
p1440
I3
sS'[103, 37, 27, 22, 18, 5, 4, 0, 0]'
p1441
I3
sS'[126, 57, 37, 32, 23, 16, 5, 2, 0]'
p1442
I3
sS'[236, 37, 16, 5, 0, 0, 0, 0]'
p1443
I3
sS'[14974, 322, 125, 91, 37, 28, 3, 2, 1]'
p1444
I3
sS'[17986, 2028, 57, 42, 13, 1, 0]'
p1445
I3
sS'[246, 115, 52, 37, 36, 0, 0, 0]'
p1446
I3
sS'[5141, 84, 74, 44, 37, 35, 8, 4, 0]'
p1447
I3
sS'[14974, 5259, 459, 144, 90, 85, 78, 52, 45]'
p1448
I1
sS'[14974, 5141, 87, 49, 15, 13, 10, 2, 0]'
p1449
I3
sS'[14974, 5141, 958, 131, 60, 8, 3, 0, 0]'
p1450
I3
sS'[5141, 90, 61, 9, 8, 7, 0, 0]'
p1451
I3
sS'[17986, 2028, 339, 56, 45, 37, 0, 0, 0]'
p1452
I3
sS'[485, 106, 61, 37, 10, 2, 0, 0, 0]'
p1453
I3
sS'[17986, 339, 37, 26, 10, 6, 1, 0]'
p1454
I3
sS'[17986, 131, 104, 37, 1, 0, 0, 0, 0]'
p1455
I3
sS'[14974, 5141, 958, 367, 339, 63, 12, 2, 0]'
p1456
I3
sS'[60, 37, 30, 16, 14, 1]'
p1457
I3
sS'[39, 37, 5, 5, 0, 0, 0, 0]'
p1458
I3
sS'[17986, 14974, 5141, 958, 339, 0, 0, 0, 0]'
p1459
I3
sS'[37, 8, 5, 0, 0, 0, 0]'
p1460
I3
sS'[339, 143, 88, 37, 22, 3, 1, 1, 0]'
p1461
I3
sS'[14974, 5141, 2028, 958, 275, 91, 34, 10, 0]'
p1462
I3
sS'[14974, 5141, 958, 25, 20, 0]'
p1463
I3
sS'[335, 333, 37, 35, 24, 18, 14, 0, 0]'
p1464
I3
sS'[155, 71, 37, 0]'
p1465
I3
sS'[46, 37, 12]'
p1466
I3
sS'[63, 46, 37, 17, 6, 5, 5, 0, 0]'
p1467
I3
sS'[374, 366, 37, 5, 5, 2, 0, 0]'
p1468
I3
sS'[17986, 2028, 115, 74, 37, 17, 0, 0, 0]'
p1469
I3
sS'[14974, 5141, 366, 346, 298, 216, 193, 53, 48]'
p1470
I3
s.