(lp1
S'ministry'
p2
aS'&amp'
p3
aS'child'
p4
aS'development'
p5
aS'govt'
p6
aS'india'
p7
aS'07-june'
p8
aS'2016'
p9
aS'18:54'
p10
aS'ist'
p11
aS'15:10'
p12
aS'wcd'
p13
aS'union'
p14
aS'minister'
p15
aS'maneka'
p16
aS'gandh'
p17
aS'environment'
p18
aS"'lu"
p19
aS'#inindia'
p20
aS'rt'
p21
aS'government'
p22
aS'state'
p23
aS'sponsored'
p24
aS'murder'
p25
aS'say'
p26
aS'male'
p27
aS'delhi'
p28
aS'confidential'
p29
aS'one-man'
p30
aS'army'
p31
aS'kill'
p32
aS'animals'
p33
aS'says'
p34
aS'slams'
p35
aS'1'
aS'wants'
p36
aS'sterilization'
p37
aS'marital'
p38
aS'rapes'
p39
aS'u-turns'
p40
aS'gandhi'
p41
aS'yesterday'
p42
aS'released'
p43
aS'foster'
p44
aS'care'
p45
aS'guidelines'
p46
aS'express'
p47
aS'#bjp'
p48
aS'#india'
p49
aS'#women'
p50
aS'jo'
p51
aS'#bjpwomen'
p52
aS'#hindus'
p53
aS'"delhi'
p54
aS'express"'
p55
aS'#delhi'
p56
aS'#3novices'
p57
aS'08'
p58
aS'06:26am'
p59
aS'#news'
p60
aS'#hyderabad'
p61
aS'#onlinemedia'
p62
aS'organise'
p63
aS'day'
p64
aS'long'
p65
aS'national'
p66
aS"journalists'"
p67
aS'workshop'
p68
aS'trafficking'
p69
aS"'it"
p70
aS'years'
p71
aS"sold'"
p72
aS'sahariah'
p73
aS'policy'
p74
aS'despite'
p75
aS'#lawagainstmen'
p76
aS'listen'
p77
aS'tonight'
p78
aS'smt'
p79
aS'sanjay'
p80
aS'radio'
p81
aS'come'
p82
aS'check'
p83
aS'harassment'
p84
aS'matrimonial'
p85
aS'sites'
p86
aS'ndtv'
p87
aS'#renukachowdary'
p88
aS'facebook'
p89
aS'page'
p90
aS'hits'
p91
aS'2'
aS'lakh'
p92
aS'&amp;#039;likes&amp;#039;!'
p93
aS'gan'
p94
a.