(lp1
S'india'
p2
aS'govt'
p3
aS'sought'
p4
aS'applications'
p5
aS'post'
p6
aS'general'
p7
aS'&amp'
p8
aS'chief'
p9
aS'executive'
p10
aS'officer'
p11
aS'institute'
p12
aS'corporate'
p13
aS'affairs'
p14
aS'iica'
p15
aS'ministry'
p16
aS'government'
p17
aS'lost'
p18
aS'lack'
p19
aS'#delegation'
p20
aS"tasks.where's"
p21
aS'finance'
p22
aS'ext'
p23
aS'minister'
p24
aS'rt'
p25
aS'#bhopalgastragedy'
p26
aS'petition'
p27
aS'economic'
p28
aS'growth'
p29
aS'environment'
p30
a.