(lp1
S'information'
p2
aS'technology'
p3
aS'post'
p4
aS'free'
p5
aS'ads'
p6
aS'#it'
p7
aS'#technology'
p8
aS'#freead'
p9
aS'#webdesign'
p10
aS'#webdevelopment'
p11
aS'changing'
p12
aS'pace'
p13
aS'future'
p14
aS'introduces'
p15
aS'#linux'
p16
aS'windows'
p17
aS'dedicated'
p18
aS'servers'
p19
aS'rt'
p20
aS'#startup'
p21
aS'policy'
p22
aS'2016'
p23
aS'state'
p24
aS'#uttarpradesh'
p25
aS'#india'
p26
aS'ministry'
p27
aS'communications'
p28
aS'&amp'
p29
aS'10-june'
p30
aS'14:41'
p31
aS'ist'
p32
aS'launches'
p33
aS'logo'
p34
aS'tagline'
p35
aS'#companies'
p36
aS'#delhi'
p37
aS'#noida'
p38
aS'#bangalore....visit'
p39
aS'indian'
p40
aS'institute'
p41
aS'design'
p42
aS'manufacturing'
p43
aS'notifies'
p44
aS'admission'
p45
aS'#opines'
p46
aS'#consultants'
p47
aS'google'
p48
aS'nearby'
p49
aS'pushes'
p50
aS'relevant'
p51
aS'based'
p52
aS'#tech'
p53
aS'sensational'
p54
aS'#career'
p55
aS'growing'
p56
aS'mumbai'
p57
aS"india's"
p58
aS'largest'
p59
aS'company'
p60
aS'tata'
p61
aS'consultancy'
p62
aS'tcs'
p63
aS'cash-rich'
p64
aS'firms'
p65
aS'govt'
p66
aS'bond'
p67
aS'market'
p68
aS'volatility'
p69
aS'reuters'
p70
a.