(lp1
S'rt'
p2
aS'placement-linked'
p3
aS'skill'
p4
aS'training'
p5
aS'initiative'
p6
aS'aiming'
p7
aS'poverty'
p8
aS'alleviation'
p9
aS'modi'
p10
aS'uplifting'
p11
aS'india'
p12
aS'need'
p13
aS'schemes'
p14
aS'labour'
p15
aS'laws'
p16
aS'jd(u'
p17
aS'keypriority'
p18
aS'2'
aS'promote'
p19
aS'economic'
p20
aS'prosperity'
p21
aS'opportunity'
p22
aS'&amp'
p23
aS'4'
aS'#barackobamagreatlegacy'
p24
aS'global'
p25
aS'south'
p26
aS'daily!'
p27
aS'thanks'
p28
aS'#uniteblue'
p29
aS'realities'
p30
aS'budgets'
p31
aS'spent'
p32
aS'#breaking'
p33
aS'#voaalert'
p34
aS'says'
p35
aS'priority'
p36
aS'pm'
p37
aS'#modi'
p38
aS'share'
p39
aS'window'
p40
aS'bullet'
p41
aS'trains'
p42
aS'digital'
p43
aS'make'
p44
aS'provide'
p45
aS'food'
p46
aS'poor'
p47
aS'great'
p48
aS'post'
p49
aS'role'
p50
aS'technology'
p51
a.