(lp1
S'public'
p2
aS'enterprises'
p3
aS'selection'
p4
aS'board'
p5
aS'require'
p6
aS'projects'
p7
aS'no.7/82/2015-pesb'
p8
aS'government'
p9
aS'dep'
p10
aS'project'
p11
aS'vacancy'
p12
aS'depa'
p13
aS'engineering'
p14
aS'7/48/2015-pesb'
p15
aS'bound'
p16
aS'waste'
p17
aS'money'
p18
a.