(lp1
S'rt'
p2
aS'#godavari'
p3
aS'river'
p4
aS'authority'
p5
aS'controlled'
p6
aS'goi'
p7
aS'#nirmalgoda'
p8
aS'#nashik'
p9
aS'happy'
p10
aS'world'
p11
aS'environment'
p12
aS'day'
p13
aS'india'
p14
aS'burn'
p15
aS'tree'
p16
aS'ground'
p17
aS'dam'
p18
aS'single'
p19
aS'room'
p20
aS'landmark'
p21
aS'afghan-india'
p22
aS'friendship'
p23
aS'symbolic'
p24
aS'continued'
p25
aS'support'
p26
aS"afghanistan's"
p27
aS'project'
p28
aS'executed'
p29
aS'&amp'
p30
aS'implemented'
p31
aS'wapcos'
p32
aS'undertaking'
p33
aS'water'
p34
aS'resources'
p35
aS'photography'
p36
aS'great'
p37
aS'source'
p38
aS'sustainable'
p39
aS'polluted'
p40
a.